
UWU_AK.elf:     file format elf32-littlearm

Sections:
Idx Name          Size      VMA       LMA       File off  Algn
  0 .isr_vector   000000c0  08000000  08000000  00001000  2**0
                  CONTENTS, ALLOC, LOAD, READONLY, DATA
  1 .text         00002fb4  080000c0  080000c0  000010c0  2**2
                  CONTENTS, ALLOC, LOAD, READONLY, CODE
  2 .rodata       00000018  08003074  08003074  00004074  2**2
                  CONTENTS, ALLOC, LOAD, READONLY, DATA
  3 .ARM.extab    00000000  0800308c  0800308c  0000501c  2**0
                  CONTENTS, READONLY
  4 .ARM          00000000  0800308c  0800308c  0000501c  2**0
                  CONTENTS, READONLY
  5 .preinit_array 00000000  0800308c  0800308c  0000501c  2**0
                  CONTENTS, ALLOC, LOAD, DATA
  6 .init_array   00000004  0800308c  0800308c  0000408c  2**2
                  CONTENTS, ALLOC, LOAD, READONLY, DATA
  7 .fini_array   00000004  08003090  08003090  00004090  2**2
                  CONTENTS, ALLOC, LOAD, READONLY, DATA
  8 .data         0000001c  20000000  08003094  00005000  2**2
                  CONTENTS, ALLOC, LOAD, DATA
  9 .bss          00000848  2000001c  080030b0  0000501c  2**2
                  ALLOC
 10 ._user_heap_stack 00000604  20000864  080030b0  00005864  2**0
                  ALLOC
 11 .ARM.attributes 00000028  00000000  00000000  0000501c  2**0
                  CONTENTS, READONLY
 12 .debug_info   0000778a  00000000  00000000  00005044  2**0
                  CONTENTS, READONLY, DEBUGGING, OCTETS
 13 .debug_abbrev 00001c70  00000000  00000000  0000c7ce  2**0
                  CONTENTS, READONLY, DEBUGGING, OCTETS
 14 .debug_aranges 000008a0  00000000  00000000  0000e440  2**3
                  CONTENTS, READONLY, DEBUGGING, OCTETS
 15 .debug_rnglists 00000657  00000000  00000000  0000ece0  2**0
                  CONTENTS, READONLY, DEBUGGING, OCTETS
 16 .debug_macro  0000f33e  00000000  00000000  0000f337  2**0
                  CONTENTS, READONLY, DEBUGGING, OCTETS
 17 .debug_line   00008211  00000000  00000000  0001e675  2**0
                  CONTENTS, READONLY, DEBUGGING, OCTETS
 18 .debug_str    0004f6ec  00000000  00000000  00026886  2**0
                  CONTENTS, READONLY, DEBUGGING, OCTETS
 19 .comment      00000086  00000000  00000000  00075f72  2**0
                  CONTENTS, READONLY
 20 .debug_frame  00001d40  00000000  00000000  00075ff8  2**2
                  CONTENTS, READONLY, DEBUGGING, OCTETS
 21 .debug_line_str 0000005e  00000000  00000000  00077d38  2**0
                  CONTENTS, READONLY, DEBUGGING, OCTETS

Disassembly of section .text:

080000c0 <__do_global_dtors_aux>:
 80000c0:	b510      	push	{r4, lr}
 80000c2:	4c06      	ldr	r4, [pc, #24]	@ (80000dc <__do_global_dtors_aux+0x1c>)
 80000c4:	7823      	ldrb	r3, [r4, #0]
 80000c6:	2b00      	cmp	r3, #0
 80000c8:	d107      	bne.n	80000da <__do_global_dtors_aux+0x1a>
 80000ca:	4b05      	ldr	r3, [pc, #20]	@ (80000e0 <__do_global_dtors_aux+0x20>)
 80000cc:	2b00      	cmp	r3, #0
 80000ce:	d002      	beq.n	80000d6 <__do_global_dtors_aux+0x16>
 80000d0:	4804      	ldr	r0, [pc, #16]	@ (80000e4 <__do_global_dtors_aux+0x24>)
 80000d2:	e000      	b.n	80000d6 <__do_global_dtors_aux+0x16>
 80000d4:	bf00      	nop
 80000d6:	2301      	movs	r3, #1
 80000d8:	7023      	strb	r3, [r4, #0]
 80000da:	bd10      	pop	{r4, pc}
 80000dc:	2000001c 	.word	0x2000001c
 80000e0:	00000000 	.word	0x00000000
 80000e4:	0800305c 	.word	0x0800305c

080000e8 <frame_dummy>:
 80000e8:	4b04      	ldr	r3, [pc, #16]	@ (80000fc <frame_dummy+0x14>)
 80000ea:	b510      	push	{r4, lr}
 80000ec:	2b00      	cmp	r3, #0
 80000ee:	d003      	beq.n	80000f8 <frame_dummy+0x10>
 80000f0:	4903      	ldr	r1, [pc, #12]	@ (8000100 <frame_dummy+0x18>)
 80000f2:	4804      	ldr	r0, [pc, #16]	@ (8000104 <frame_dummy+0x1c>)
 80000f4:	e000      	b.n	80000f8 <frame_dummy+0x10>
 80000f6:	bf00      	nop
 80000f8:	bd10      	pop	{r4, pc}
 80000fa:	46c0      	nop			@ (mov r8, r8)
 80000fc:	00000000 	.word	0x00000000
 8000100:	20000020 	.word	0x20000020
 8000104:	0800305c 	.word	0x0800305c

08000108 <__udivsi3>:
 8000108:	2200      	movs	r2, #0
 800010a:	0843      	lsrs	r3, r0, #1
 800010c:	428b      	cmp	r3, r1
 800010e:	d374      	bcc.n	80001fa <__udivsi3+0xf2>
 8000110:	0903      	lsrs	r3, r0, #4
 8000112:	428b      	cmp	r3, r1
 8000114:	d35f      	bcc.n	80001d6 <__udivsi3+0xce>
 8000116:	0a03      	lsrs	r3, r0, #8
 8000118:	428b      	cmp	r3, r1
 800011a:	d344      	bcc.n	80001a6 <__udivsi3+0x9e>
 800011c:	0b03      	lsrs	r3, r0, #12
 800011e:	428b      	cmp	r3, r1
 8000120:	d328      	bcc.n	8000174 <__udivsi3+0x6c>
 8000122:	0c03      	lsrs	r3, r0, #16
 8000124:	428b      	cmp	r3, r1
 8000126:	d30d      	bcc.n	8000144 <__udivsi3+0x3c>
 8000128:	22ff      	movs	r2, #255	@ 0xff
 800012a:	0209      	lsls	r1, r1, #8
 800012c:	ba12      	rev	r2, r2
 800012e:	0c03      	lsrs	r3, r0, #16
 8000130:	428b      	cmp	r3, r1
 8000132:	d302      	bcc.n	800013a <__udivsi3+0x32>
 8000134:	1212      	asrs	r2, r2, #8
 8000136:	0209      	lsls	r1, r1, #8
 8000138:	d065      	beq.n	8000206 <__udivsi3+0xfe>
 800013a:	0b03      	lsrs	r3, r0, #12
 800013c:	428b      	cmp	r3, r1
 800013e:	d319      	bcc.n	8000174 <__udivsi3+0x6c>
 8000140:	e000      	b.n	8000144 <__udivsi3+0x3c>
 8000142:	0a09      	lsrs	r1, r1, #8
 8000144:	0bc3      	lsrs	r3, r0, #15
 8000146:	428b      	cmp	r3, r1
 8000148:	d301      	bcc.n	800014e <__udivsi3+0x46>
 800014a:	03cb      	lsls	r3, r1, #15
 800014c:	1ac0      	subs	r0, r0, r3
 800014e:	4152      	adcs	r2, r2
 8000150:	0b83      	lsrs	r3, r0, #14
 8000152:	428b      	cmp	r3, r1
 8000154:	d301      	bcc.n	800015a <__udivsi3+0x52>
 8000156:	038b      	lsls	r3, r1, #14
 8000158:	1ac0      	subs	r0, r0, r3
 800015a:	4152      	adcs	r2, r2
 800015c:	0b43      	lsrs	r3, r0, #13
 800015e:	428b      	cmp	r3, r1
 8000160:	d301      	bcc.n	8000166 <__udivsi3+0x5e>
 8000162:	034b      	lsls	r3, r1, #13
 8000164:	1ac0      	subs	r0, r0, r3
 8000166:	4152      	adcs	r2, r2
 8000168:	0b03      	lsrs	r3, r0, #12
 800016a:	428b      	cmp	r3, r1
 800016c:	d301      	bcc.n	8000172 <__udivsi3+0x6a>
 800016e:	030b      	lsls	r3, r1, #12
 8000170:	1ac0      	subs	r0, r0, r3
 8000172:	4152      	adcs	r2, r2
 8000174:	0ac3      	lsrs	r3, r0, #11
 8000176:	428b      	cmp	r3, r1
 8000178:	d301      	bcc.n	800017e <__udivsi3+0x76>
 800017a:	02cb      	lsls	r3, r1, #11
 800017c:	1ac0      	subs	r0, r0, r3
 800017e:	4152      	adcs	r2, r2
 8000180:	0a83      	lsrs	r3, r0, #10
 8000182:	428b      	cmp	r3, r1
 8000184:	d301      	bcc.n	800018a <__udivsi3+0x82>
 8000186:	028b      	lsls	r3, r1, #10
 8000188:	1ac0      	subs	r0, r0, r3
 800018a:	4152      	adcs	r2, r2
 800018c:	0a43      	lsrs	r3, r0, #9
 800018e:	428b      	cmp	r3, r1
 8000190:	d301      	bcc.n	8000196 <__udivsi3+0x8e>
 8000192:	024b      	lsls	r3, r1, #9
 8000194:	1ac0      	subs	r0, r0, r3
 8000196:	4152      	adcs	r2, r2
 8000198:	0a03      	lsrs	r3, r0, #8
 800019a:	428b      	cmp	r3, r1
 800019c:	d301      	bcc.n	80001a2 <__udivsi3+0x9a>
 800019e:	020b      	lsls	r3, r1, #8
 80001a0:	1ac0      	subs	r0, r0, r3
 80001a2:	4152      	adcs	r2, r2
 80001a4:	d2cd      	bcs.n	8000142 <__udivsi3+0x3a>
 80001a6:	09c3      	lsrs	r3, r0, #7
 80001a8:	428b      	cmp	r3, r1
 80001aa:	d301      	bcc.n	80001b0 <__udivsi3+0xa8>
 80001ac:	01cb      	lsls	r3, r1, #7
 80001ae:	1ac0      	subs	r0, r0, r3
 80001b0:	4152      	adcs	r2, r2
 80001b2:	0983      	lsrs	r3, r0, #6
 80001b4:	428b      	cmp	r3, r1
 80001b6:	d301      	bcc.n	80001bc <__udivsi3+0xb4>
 80001b8:	018b      	lsls	r3, r1, #6
 80001ba:	1ac0      	subs	r0, r0, r3
 80001bc:	4152      	adcs	r2, r2
 80001be:	0943      	lsrs	r3, r0, #5
 80001c0:	428b      	cmp	r3, r1
 80001c2:	d301      	bcc.n	80001c8 <__udivsi3+0xc0>
 80001c4:	014b      	lsls	r3, r1, #5
 80001c6:	1ac0      	subs	r0, r0, r3
 80001c8:	4152      	adcs	r2, r2
 80001ca:	0903      	lsrs	r3, r0, #4
 80001cc:	428b      	cmp	r3, r1
 80001ce:	d301      	bcc.n	80001d4 <__udivsi3+0xcc>
 80001d0:	010b      	lsls	r3, r1, #4
 80001d2:	1ac0      	subs	r0, r0, r3
 80001d4:	4152      	adcs	r2, r2
 80001d6:	08c3      	lsrs	r3, r0, #3
 80001d8:	428b      	cmp	r3, r1
 80001da:	d301      	bcc.n	80001e0 <__udivsi3+0xd8>
 80001dc:	00cb      	lsls	r3, r1, #3
 80001de:	1ac0      	subs	r0, r0, r3
 80001e0:	4152      	adcs	r2, r2
 80001e2:	0883      	lsrs	r3, r0, #2
 80001e4:	428b      	cmp	r3, r1
 80001e6:	d301      	bcc.n	80001ec <__udivsi3+0xe4>
 80001e8:	008b      	lsls	r3, r1, #2
 80001ea:	1ac0      	subs	r0, r0, r3
 80001ec:	4152      	adcs	r2, r2
 80001ee:	0843      	lsrs	r3, r0, #1
 80001f0:	428b      	cmp	r3, r1
 80001f2:	d301      	bcc.n	80001f8 <__udivsi3+0xf0>
 80001f4:	004b      	lsls	r3, r1, #1
 80001f6:	1ac0      	subs	r0, r0, r3
 80001f8:	4152      	adcs	r2, r2
 80001fa:	1a41      	subs	r1, r0, r1
 80001fc:	d200      	bcs.n	8000200 <__udivsi3+0xf8>
 80001fe:	4601      	mov	r1, r0
 8000200:	4152      	adcs	r2, r2
 8000202:	4610      	mov	r0, r2
 8000204:	4770      	bx	lr
 8000206:	e7ff      	b.n	8000208 <__udivsi3+0x100>
 8000208:	b501      	push	{r0, lr}
 800020a:	2000      	movs	r0, #0
 800020c:	f000 f806 	bl	800021c <__aeabi_idiv0>
 8000210:	bd02      	pop	{r1, pc}
 8000212:	46c0      	nop			@ (mov r8, r8)

08000214 <__aeabi_uidivmod>:
 8000214:	2900      	cmp	r1, #0
 8000216:	d0f7      	beq.n	8000208 <__udivsi3+0x100>
 8000218:	e776      	b.n	8000108 <__udivsi3>
 800021a:	4770      	bx	lr

0800021c <__aeabi_idiv0>:
 800021c:	4770      	bx	lr
 800021e:	46c0      	nop			@ (mov r8, r8)

08000220 <IsAnyBufferEmpty>:
//system specific increments taken data
extern uint32_t currentAddr;

//returns if any buffer is empty and ready to fill
uint8_t IsAnyBufferEmpty()
{
 8000220:	b580      	push	{r7, lr}
 8000222:	af00      	add	r7, sp, #0
	if(buffer1.status == EMPTY || buffer2.status == EMPTY) return 0x01;
 8000224:	4b08      	ldr	r3, [pc, #32]	@ (8000248 <IsAnyBufferEmpty+0x28>)
 8000226:	4a09      	ldr	r2, [pc, #36]	@ (800024c <IsAnyBufferEmpty+0x2c>)
 8000228:	5c9b      	ldrb	r3, [r3, r2]
 800022a:	b2db      	uxtb	r3, r3
 800022c:	2b00      	cmp	r3, #0
 800022e:	d005      	beq.n	800023c <IsAnyBufferEmpty+0x1c>
 8000230:	4b07      	ldr	r3, [pc, #28]	@ (8000250 <IsAnyBufferEmpty+0x30>)
 8000232:	4a06      	ldr	r2, [pc, #24]	@ (800024c <IsAnyBufferEmpty+0x2c>)
 8000234:	5c9b      	ldrb	r3, [r3, r2]
 8000236:	b2db      	uxtb	r3, r3
 8000238:	2b00      	cmp	r3, #0
 800023a:	d101      	bne.n	8000240 <IsAnyBufferEmpty+0x20>
 800023c:	2301      	movs	r3, #1
 800023e:	e000      	b.n	8000242 <IsAnyBufferEmpty+0x22>
	else return 0x00;
 8000240:	2300      	movs	r3, #0
}
 8000242:	0018      	movs	r0, r3
 8000244:	46bd      	mov	sp, r7
 8000246:	bd80      	pop	{r7, pc}
 8000248:	20000038 	.word	0x20000038
 800024c:	00000404 	.word	0x00000404
 8000250:	20000440 	.word	0x20000440

08000254 <GetEmptyBuffer>:

//return pointer to buffer to fill
void GetEmptyBuffer()
{
 8000254:	b580      	push	{r7, lr}
 8000256:	af00      	add	r7, sp, #0
	if(buffer1.status == EMPTY) currentWriteBuffer = &buffer1;
 8000258:	4b0a      	ldr	r3, [pc, #40]	@ (8000284 <GetEmptyBuffer+0x30>)
 800025a:	4a0b      	ldr	r2, [pc, #44]	@ (8000288 <GetEmptyBuffer+0x34>)
 800025c:	5c9b      	ldrb	r3, [r3, r2]
 800025e:	b2db      	uxtb	r3, r3
 8000260:	2b00      	cmp	r3, #0
 8000262:	d103      	bne.n	800026c <GetEmptyBuffer+0x18>
 8000264:	4b09      	ldr	r3, [pc, #36]	@ (800028c <GetEmptyBuffer+0x38>)
 8000266:	4a07      	ldr	r2, [pc, #28]	@ (8000284 <GetEmptyBuffer+0x30>)
 8000268:	601a      	str	r2, [r3, #0]
	else if(buffer2.status == EMPTY) currentWriteBuffer = &buffer2;
}
 800026a:	e008      	b.n	800027e <GetEmptyBuffer+0x2a>
	else if(buffer2.status == EMPTY) currentWriteBuffer = &buffer2;
 800026c:	4b08      	ldr	r3, [pc, #32]	@ (8000290 <GetEmptyBuffer+0x3c>)
 800026e:	4a06      	ldr	r2, [pc, #24]	@ (8000288 <GetEmptyBuffer+0x34>)
 8000270:	5c9b      	ldrb	r3, [r3, r2]
 8000272:	b2db      	uxtb	r3, r3
 8000274:	2b00      	cmp	r3, #0
 8000276:	d102      	bne.n	800027e <GetEmptyBuffer+0x2a>
 8000278:	4b04      	ldr	r3, [pc, #16]	@ (800028c <GetEmptyBuffer+0x38>)
 800027a:	4a05      	ldr	r2, [pc, #20]	@ (8000290 <GetEmptyBuffer+0x3c>)
 800027c:	601a      	str	r2, [r3, #0]
}
 800027e:	46c0      	nop			@ (mov r8, r8)
 8000280:	46bd      	mov	sp, r7
 8000282:	bd80      	pop	{r7, pc}
 8000284:	20000038 	.word	0x20000038
 8000288:	00000404 	.word	0x00000404
 800028c:	20000848 	.word	0x20000848
 8000290:	20000440 	.word	0x20000440

08000294 <BufferAppend>:

//load data into buffer
void BufferAppend(uint8_t data)
{
 8000294:	b590      	push	{r4, r7, lr}
 8000296:	b083      	sub	sp, #12
 8000298:	af00      	add	r7, sp, #0
 800029a:	0002      	movs	r2, r0
 800029c:	1dfb      	adds	r3, r7, #7
 800029e:	701a      	strb	r2, [r3, #0]
	//if(buffer -> status == FULL) return; //full buffer protection
	if(currentWriteBuffer -> length < BUFFER_SIZE)
 80002a0:	4b0e      	ldr	r3, [pc, #56]	@ (80002dc <BufferAppend+0x48>)
 80002a2:	681a      	ldr	r2, [r3, #0]
 80002a4:	2380      	movs	r3, #128	@ 0x80
 80002a6:	00db      	lsls	r3, r3, #3
 80002a8:	5ad3      	ldrh	r3, [r2, r3]
 80002aa:	b29a      	uxth	r2, r3
 80002ac:	2380      	movs	r3, #128	@ 0x80
 80002ae:	00db      	lsls	r3, r3, #3
 80002b0:	429a      	cmp	r2, r3
 80002b2:	d20f      	bcs.n	80002d4 <BufferAppend+0x40>
		currentWriteBuffer ->data[currentWriteBuffer->length++] = data;
 80002b4:	4b09      	ldr	r3, [pc, #36]	@ (80002dc <BufferAppend+0x48>)
 80002b6:	6819      	ldr	r1, [r3, #0]
 80002b8:	4b08      	ldr	r3, [pc, #32]	@ (80002dc <BufferAppend+0x48>)
 80002ba:	681b      	ldr	r3, [r3, #0]
 80002bc:	2280      	movs	r2, #128	@ 0x80
 80002be:	00d2      	lsls	r2, r2, #3
 80002c0:	5a9a      	ldrh	r2, [r3, r2]
 80002c2:	b292      	uxth	r2, r2
 80002c4:	1c50      	adds	r0, r2, #1
 80002c6:	b284      	uxth	r4, r0
 80002c8:	2080      	movs	r0, #128	@ 0x80
 80002ca:	00c0      	lsls	r0, r0, #3
 80002cc:	521c      	strh	r4, [r3, r0]
 80002ce:	1dfb      	adds	r3, r7, #7
 80002d0:	781b      	ldrb	r3, [r3, #0]
 80002d2:	548b      	strb	r3, [r1, r2]
}
 80002d4:	46c0      	nop			@ (mov r8, r8)
 80002d6:	46bd      	mov	sp, r7
 80002d8:	b003      	add	sp, #12
 80002da:	bd90      	pop	{r4, r7, pc}
 80002dc:	20000848 	.word	0x20000848

080002e0 <BufferCommit>:

//commits buffer to read
void BufferCommit()
{
 80002e0:	b580      	push	{r7, lr}
 80002e2:	af00      	add	r7, sp, #0
	if(currentWriteBuffer -> length > 0)
 80002e4:	4b10      	ldr	r3, [pc, #64]	@ (8000328 <BufferCommit+0x48>)
 80002e6:	681a      	ldr	r2, [r3, #0]
 80002e8:	2380      	movs	r3, #128	@ 0x80
 80002ea:	00db      	lsls	r3, r3, #3
 80002ec:	5ad3      	ldrh	r3, [r2, r3]
 80002ee:	b29b      	uxth	r3, r3
 80002f0:	2b00      	cmp	r3, #0
 80002f2:	d015      	beq.n	8000320 <BufferCommit+0x40>
	{
		currentWriteBuffer -> index = 0;
 80002f4:	4b0c      	ldr	r3, [pc, #48]	@ (8000328 <BufferCommit+0x48>)
 80002f6:	681b      	ldr	r3, [r3, #0]
 80002f8:	4a0c      	ldr	r2, [pc, #48]	@ (800032c <BufferCommit+0x4c>)
 80002fa:	2100      	movs	r1, #0
 80002fc:	5299      	strh	r1, [r3, r2]
		currentWriteBuffer -> status = READY;
 80002fe:	4b0a      	ldr	r3, [pc, #40]	@ (8000328 <BufferCommit+0x48>)
 8000300:	681b      	ldr	r3, [r3, #0]
 8000302:	4a0b      	ldr	r2, [pc, #44]	@ (8000330 <BufferCommit+0x50>)
 8000304:	2101      	movs	r1, #1
 8000306:	5499      	strb	r1, [r3, r2]


		currentAddr = currentAddr + (currentWriteBuffer -> length);
 8000308:	4b07      	ldr	r3, [pc, #28]	@ (8000328 <BufferCommit+0x48>)
 800030a:	681a      	ldr	r2, [r3, #0]
 800030c:	2380      	movs	r3, #128	@ 0x80
 800030e:	00db      	lsls	r3, r3, #3
 8000310:	5ad3      	ldrh	r3, [r2, r3]
 8000312:	b29b      	uxth	r3, r3
 8000314:	001a      	movs	r2, r3
 8000316:	4b07      	ldr	r3, [pc, #28]	@ (8000334 <BufferCommit+0x54>)
 8000318:	681b      	ldr	r3, [r3, #0]
 800031a:	18d2      	adds	r2, r2, r3
 800031c:	4b05      	ldr	r3, [pc, #20]	@ (8000334 <BufferCommit+0x54>)
 800031e:	601a      	str	r2, [r3, #0]
	}
}
 8000320:	46c0      	nop			@ (mov r8, r8)
 8000322:	46bd      	mov	sp, r7
 8000324:	bd80      	pop	{r7, pc}
 8000326:	46c0      	nop			@ (mov r8, r8)
 8000328:	20000848 	.word	0x20000848
 800032c:	00000402 	.word	0x00000402
 8000330:	00000404 	.word	0x00000404
 8000334:	20000854 	.word	0x20000854

08000338 <IsAnyBufferReady>:

//checks if any buffer is ready to read
uint8_t IsAnyBufferReady()
{
 8000338:	b580      	push	{r7, lr}
 800033a:	af00      	add	r7, sp, #0
	if(buffer1.status == READY || buffer2.status == READY) return 0x01;
 800033c:	4b08      	ldr	r3, [pc, #32]	@ (8000360 <IsAnyBufferReady+0x28>)
 800033e:	4a09      	ldr	r2, [pc, #36]	@ (8000364 <IsAnyBufferReady+0x2c>)
 8000340:	5c9b      	ldrb	r3, [r3, r2]
 8000342:	b2db      	uxtb	r3, r3
 8000344:	2b01      	cmp	r3, #1
 8000346:	d005      	beq.n	8000354 <IsAnyBufferReady+0x1c>
 8000348:	4b07      	ldr	r3, [pc, #28]	@ (8000368 <IsAnyBufferReady+0x30>)
 800034a:	4a06      	ldr	r2, [pc, #24]	@ (8000364 <IsAnyBufferReady+0x2c>)
 800034c:	5c9b      	ldrb	r3, [r3, r2]
 800034e:	b2db      	uxtb	r3, r3
 8000350:	2b01      	cmp	r3, #1
 8000352:	d101      	bne.n	8000358 <IsAnyBufferReady+0x20>
 8000354:	2301      	movs	r3, #1
 8000356:	e000      	b.n	800035a <IsAnyBufferReady+0x22>
	else return 0x00;
 8000358:	2300      	movs	r3, #0
}
 800035a:	0018      	movs	r0, r3
 800035c:	46bd      	mov	sp, r7
 800035e:	bd80      	pop	{r7, pc}
 8000360:	20000038 	.word	0x20000038
 8000364:	00000404 	.word	0x00000404
 8000368:	20000440 	.word	0x20000440

0800036c <GetReadyBuffer>:

//sets pointer to ready buffer
void GetReadyBuffer()
{
 800036c:	b580      	push	{r7, lr}
 800036e:	af00      	add	r7, sp, #0
	if(buffer1.status == READY) currentReadBuffer = &buffer1;
 8000370:	4b0a      	ldr	r3, [pc, #40]	@ (800039c <GetReadyBuffer+0x30>)
 8000372:	4a0b      	ldr	r2, [pc, #44]	@ (80003a0 <GetReadyBuffer+0x34>)
 8000374:	5c9b      	ldrb	r3, [r3, r2]
 8000376:	b2db      	uxtb	r3, r3
 8000378:	2b01      	cmp	r3, #1
 800037a:	d103      	bne.n	8000384 <GetReadyBuffer+0x18>
 800037c:	4b09      	ldr	r3, [pc, #36]	@ (80003a4 <GetReadyBuffer+0x38>)
 800037e:	4a07      	ldr	r2, [pc, #28]	@ (800039c <GetReadyBuffer+0x30>)
 8000380:	601a      	str	r2, [r3, #0]
	else if(buffer2.status == READY) currentReadBuffer = &buffer2;
}
 8000382:	e008      	b.n	8000396 <GetReadyBuffer+0x2a>
	else if(buffer2.status == READY) currentReadBuffer = &buffer2;
 8000384:	4b08      	ldr	r3, [pc, #32]	@ (80003a8 <GetReadyBuffer+0x3c>)
 8000386:	4a06      	ldr	r2, [pc, #24]	@ (80003a0 <GetReadyBuffer+0x34>)
 8000388:	5c9b      	ldrb	r3, [r3, r2]
 800038a:	b2db      	uxtb	r3, r3
 800038c:	2b01      	cmp	r3, #1
 800038e:	d102      	bne.n	8000396 <GetReadyBuffer+0x2a>
 8000390:	4b04      	ldr	r3, [pc, #16]	@ (80003a4 <GetReadyBuffer+0x38>)
 8000392:	4a05      	ldr	r2, [pc, #20]	@ (80003a8 <GetReadyBuffer+0x3c>)
 8000394:	601a      	str	r2, [r3, #0]
}
 8000396:	46c0      	nop			@ (mov r8, r8)
 8000398:	46bd      	mov	sp, r7
 800039a:	bd80      	pop	{r7, pc}
 800039c:	20000038 	.word	0x20000038
 80003a0:	00000404 	.word	0x00000404
 80003a4:	2000084c 	.word	0x2000084c
 80003a8:	20000440 	.word	0x20000440

080003ac <BufferTake>:

//gives data from buffer and loops
uint8_t BufferTake()
{
 80003ac:	b590      	push	{r4, r7, lr}
 80003ae:	b083      	sub	sp, #12
 80003b0:	af00      	add	r7, sp, #0
	//if(buffer -> status == EMPTY) return 0; //ERROR
	uint8_t val = currentReadBuffer -> data[currentReadBuffer-> index++];
 80003b2:	4b17      	ldr	r3, [pc, #92]	@ (8000410 <BufferTake+0x64>)
 80003b4:	6819      	ldr	r1, [r3, #0]
 80003b6:	4b16      	ldr	r3, [pc, #88]	@ (8000410 <BufferTake+0x64>)
 80003b8:	681b      	ldr	r3, [r3, #0]
 80003ba:	4a16      	ldr	r2, [pc, #88]	@ (8000414 <BufferTake+0x68>)
 80003bc:	5a9a      	ldrh	r2, [r3, r2]
 80003be:	b292      	uxth	r2, r2
 80003c0:	1c50      	adds	r0, r2, #1
 80003c2:	b284      	uxth	r4, r0
 80003c4:	4813      	ldr	r0, [pc, #76]	@ (8000414 <BufferTake+0x68>)
 80003c6:	521c      	strh	r4, [r3, r0]
 80003c8:	1dfb      	adds	r3, r7, #7
 80003ca:	5c8a      	ldrb	r2, [r1, r2]
 80003cc:	701a      	strb	r2, [r3, #0]

	if((currentReadBuffer -> index) >= (currentReadBuffer -> length))
 80003ce:	4b10      	ldr	r3, [pc, #64]	@ (8000410 <BufferTake+0x64>)
 80003d0:	681b      	ldr	r3, [r3, #0]
 80003d2:	4a10      	ldr	r2, [pc, #64]	@ (8000414 <BufferTake+0x68>)
 80003d4:	5a9b      	ldrh	r3, [r3, r2]
 80003d6:	b29a      	uxth	r2, r3
 80003d8:	4b0d      	ldr	r3, [pc, #52]	@ (8000410 <BufferTake+0x64>)
 80003da:	6819      	ldr	r1, [r3, #0]
 80003dc:	2380      	movs	r3, #128	@ 0x80
 80003de:	00db      	lsls	r3, r3, #3
 80003e0:	5acb      	ldrh	r3, [r1, r3]
 80003e2:	b29b      	uxth	r3, r3
 80003e4:	429a      	cmp	r2, r3
 80003e6:	d30c      	bcc.n	8000402 <BufferTake+0x56>
	{
		currentReadBuffer -> length = 0;
 80003e8:	4b09      	ldr	r3, [pc, #36]	@ (8000410 <BufferTake+0x64>)
 80003ea:	681a      	ldr	r2, [r3, #0]
 80003ec:	2380      	movs	r3, #128	@ 0x80
 80003ee:	00db      	lsls	r3, r3, #3
 80003f0:	2100      	movs	r1, #0
 80003f2:	52d1      	strh	r1, [r2, r3]
		currentReadBuffer -> status = EMPTY;
 80003f4:	4b06      	ldr	r3, [pc, #24]	@ (8000410 <BufferTake+0x64>)
 80003f6:	681b      	ldr	r3, [r3, #0]
 80003f8:	4a07      	ldr	r2, [pc, #28]	@ (8000418 <BufferTake+0x6c>)
 80003fa:	2100      	movs	r1, #0
 80003fc:	5499      	strb	r1, [r3, r2]
		GetReadyBuffer(); // system specific loops till end of file
 80003fe:	f7ff ffb5 	bl	800036c <GetReadyBuffer>
	}

	return val;
 8000402:	1dfb      	adds	r3, r7, #7
 8000404:	781b      	ldrb	r3, [r3, #0]
}
 8000406:	0018      	movs	r0, r3
 8000408:	46bd      	mov	sp, r7
 800040a:	b003      	add	sp, #12
 800040c:	bd90      	pop	{r4, r7, pc}
 800040e:	46c0      	nop			@ (mov r8, r8)
 8000410:	2000084c 	.word	0x2000084c
 8000414:	00000402 	.word	0x00000402
 8000418:	00000404 	.word	0x00000404

0800041c <__NVIC_EnableIRQ>:
  \details Enables a device specific interrupt in the NVIC interrupt controller.
  \param [in]      IRQn  Device specific interrupt number.
  \note    IRQn must not be negative.
 */
__STATIC_INLINE void __NVIC_EnableIRQ(IRQn_Type IRQn)
{
 800041c:	b580      	push	{r7, lr}
 800041e:	b082      	sub	sp, #8
 8000420:	af00      	add	r7, sp, #0
 8000422:	0002      	movs	r2, r0
 8000424:	1dfb      	adds	r3, r7, #7
 8000426:	701a      	strb	r2, [r3, #0]
  if ((int32_t)(IRQn) >= 0)
 8000428:	1dfb      	adds	r3, r7, #7
 800042a:	781b      	ldrb	r3, [r3, #0]
 800042c:	2b7f      	cmp	r3, #127	@ 0x7f
 800042e:	d809      	bhi.n	8000444 <__NVIC_EnableIRQ+0x28>
  {
    __COMPILER_BARRIER();
    NVIC->ISER[0U] = (uint32_t)(1UL << (((uint32_t)IRQn) & 0x1FUL));
 8000430:	1dfb      	adds	r3, r7, #7
 8000432:	781b      	ldrb	r3, [r3, #0]
 8000434:	001a      	movs	r2, r3
 8000436:	231f      	movs	r3, #31
 8000438:	401a      	ands	r2, r3
 800043a:	4b04      	ldr	r3, [pc, #16]	@ (800044c <__NVIC_EnableIRQ+0x30>)
 800043c:	2101      	movs	r1, #1
 800043e:	4091      	lsls	r1, r2
 8000440:	000a      	movs	r2, r1
 8000442:	601a      	str	r2, [r3, #0]
    __COMPILER_BARRIER();
  }
}
 8000444:	46c0      	nop			@ (mov r8, r8)
 8000446:	46bd      	mov	sp, r7
 8000448:	b002      	add	sp, #8
 800044a:	bd80      	pop	{r7, pc}
 800044c:	e000e100 	.word	0xe000e100

08000450 <__NVIC_SetPriority>:
  \param [in]      IRQn  Interrupt number.
  \param [in]  priority  Priority to set.
  \note    The priority cannot be set for every processor exception.
 */
__STATIC_INLINE void __NVIC_SetPriority(IRQn_Type IRQn, uint32_t priority)
{
 8000450:	b590      	push	{r4, r7, lr}
 8000452:	b083      	sub	sp, #12
 8000454:	af00      	add	r7, sp, #0
 8000456:	0002      	movs	r2, r0
 8000458:	6039      	str	r1, [r7, #0]
 800045a:	1dfb      	adds	r3, r7, #7
 800045c:	701a      	strb	r2, [r3, #0]
  if ((int32_t)(IRQn) >= 0)
 800045e:	1dfb      	adds	r3, r7, #7
 8000460:	781b      	ldrb	r3, [r3, #0]
 8000462:	2b7f      	cmp	r3, #127	@ 0x7f
 8000464:	d828      	bhi.n	80004b8 <__NVIC_SetPriority+0x68>
  {
    NVIC->IP[_IP_IDX(IRQn)]  = ((uint32_t)(NVIC->IP[_IP_IDX(IRQn)]  & ~(0xFFUL << _BIT_SHIFT(IRQn))) |
 8000466:	4a2f      	ldr	r2, [pc, #188]	@ (8000524 <__NVIC_SetPriority+0xd4>)
 8000468:	1dfb      	adds	r3, r7, #7
 800046a:	781b      	ldrb	r3, [r3, #0]
 800046c:	b25b      	sxtb	r3, r3
 800046e:	089b      	lsrs	r3, r3, #2
 8000470:	33c0      	adds	r3, #192	@ 0xc0
 8000472:	009b      	lsls	r3, r3, #2
 8000474:	589b      	ldr	r3, [r3, r2]
 8000476:	1dfa      	adds	r2, r7, #7
 8000478:	7812      	ldrb	r2, [r2, #0]
 800047a:	0011      	movs	r1, r2
 800047c:	2203      	movs	r2, #3
 800047e:	400a      	ands	r2, r1
 8000480:	00d2      	lsls	r2, r2, #3
 8000482:	21ff      	movs	r1, #255	@ 0xff
 8000484:	4091      	lsls	r1, r2
 8000486:	000a      	movs	r2, r1
 8000488:	43d2      	mvns	r2, r2
 800048a:	401a      	ands	r2, r3
 800048c:	0011      	movs	r1, r2
       (((priority << (8U - __NVIC_PRIO_BITS)) & (uint32_t)0xFFUL) << _BIT_SHIFT(IRQn)));
 800048e:	683b      	ldr	r3, [r7, #0]
 8000490:	019b      	lsls	r3, r3, #6
 8000492:	22ff      	movs	r2, #255	@ 0xff
 8000494:	401a      	ands	r2, r3
 8000496:	1dfb      	adds	r3, r7, #7
 8000498:	781b      	ldrb	r3, [r3, #0]
 800049a:	0018      	movs	r0, r3
 800049c:	2303      	movs	r3, #3
 800049e:	4003      	ands	r3, r0
 80004a0:	00db      	lsls	r3, r3, #3
 80004a2:	409a      	lsls	r2, r3
    NVIC->IP[_IP_IDX(IRQn)]  = ((uint32_t)(NVIC->IP[_IP_IDX(IRQn)]  & ~(0xFFUL << _BIT_SHIFT(IRQn))) |
 80004a4:	481f      	ldr	r0, [pc, #124]	@ (8000524 <__NVIC_SetPriority+0xd4>)
 80004a6:	1dfb      	adds	r3, r7, #7
 80004a8:	781b      	ldrb	r3, [r3, #0]
 80004aa:	b25b      	sxtb	r3, r3
 80004ac:	089b      	lsrs	r3, r3, #2
 80004ae:	430a      	orrs	r2, r1
 80004b0:	33c0      	adds	r3, #192	@ 0xc0
 80004b2:	009b      	lsls	r3, r3, #2
 80004b4:	501a      	str	r2, [r3, r0]
  else
  {
    SCB->SHP[_SHP_IDX(IRQn)] = ((uint32_t)(SCB->SHP[_SHP_IDX(IRQn)] & ~(0xFFUL << _BIT_SHIFT(IRQn))) |
       (((priority << (8U - __NVIC_PRIO_BITS)) & (uint32_t)0xFFUL) << _BIT_SHIFT(IRQn)));
  }
}
 80004b6:	e031      	b.n	800051c <__NVIC_SetPriority+0xcc>
    SCB->SHP[_SHP_IDX(IRQn)] = ((uint32_t)(SCB->SHP[_SHP_IDX(IRQn)] & ~(0xFFUL << _BIT_SHIFT(IRQn))) |
 80004b8:	4a1b      	ldr	r2, [pc, #108]	@ (8000528 <__NVIC_SetPriority+0xd8>)
 80004ba:	1dfb      	adds	r3, r7, #7
 80004bc:	781b      	ldrb	r3, [r3, #0]
 80004be:	0019      	movs	r1, r3
 80004c0:	230f      	movs	r3, #15
 80004c2:	400b      	ands	r3, r1
 80004c4:	3b08      	subs	r3, #8
 80004c6:	089b      	lsrs	r3, r3, #2
 80004c8:	3306      	adds	r3, #6
 80004ca:	009b      	lsls	r3, r3, #2
 80004cc:	18d3      	adds	r3, r2, r3
 80004ce:	3304      	adds	r3, #4
 80004d0:	681b      	ldr	r3, [r3, #0]
 80004d2:	1dfa      	adds	r2, r7, #7
 80004d4:	7812      	ldrb	r2, [r2, #0]
 80004d6:	0011      	movs	r1, r2
 80004d8:	2203      	movs	r2, #3
 80004da:	400a      	ands	r2, r1
 80004dc:	00d2      	lsls	r2, r2, #3
 80004de:	21ff      	movs	r1, #255	@ 0xff
 80004e0:	4091      	lsls	r1, r2
 80004e2:	000a      	movs	r2, r1
 80004e4:	43d2      	mvns	r2, r2
 80004e6:	401a      	ands	r2, r3
 80004e8:	0011      	movs	r1, r2
       (((priority << (8U - __NVIC_PRIO_BITS)) & (uint32_t)0xFFUL) << _BIT_SHIFT(IRQn)));
 80004ea:	683b      	ldr	r3, [r7, #0]
 80004ec:	019b      	lsls	r3, r3, #6
 80004ee:	22ff      	movs	r2, #255	@ 0xff
 80004f0:	401a      	ands	r2, r3
 80004f2:	1dfb      	adds	r3, r7, #7
 80004f4:	781b      	ldrb	r3, [r3, #0]
 80004f6:	0018      	movs	r0, r3
 80004f8:	2303      	movs	r3, #3
 80004fa:	4003      	ands	r3, r0
 80004fc:	00db      	lsls	r3, r3, #3
 80004fe:	409a      	lsls	r2, r3
    SCB->SHP[_SHP_IDX(IRQn)] = ((uint32_t)(SCB->SHP[_SHP_IDX(IRQn)] & ~(0xFFUL << _BIT_SHIFT(IRQn))) |
 8000500:	4809      	ldr	r0, [pc, #36]	@ (8000528 <__NVIC_SetPriority+0xd8>)
 8000502:	1dfb      	adds	r3, r7, #7
 8000504:	781b      	ldrb	r3, [r3, #0]
 8000506:	001c      	movs	r4, r3
 8000508:	230f      	movs	r3, #15
 800050a:	4023      	ands	r3, r4
 800050c:	3b08      	subs	r3, #8
 800050e:	089b      	lsrs	r3, r3, #2
 8000510:	430a      	orrs	r2, r1
 8000512:	3306      	adds	r3, #6
 8000514:	009b      	lsls	r3, r3, #2
 8000516:	18c3      	adds	r3, r0, r3
 8000518:	3304      	adds	r3, #4
 800051a:	601a      	str	r2, [r3, #0]
}
 800051c:	46c0      	nop			@ (mov r8, r8)
 800051e:	46bd      	mov	sp, r7
 8000520:	b003      	add	sp, #12
 8000522:	bd90      	pop	{r4, r7, pc}
 8000524:	e000e100 	.word	0xe000e100
 8000528:	e000ed00 	.word	0xe000ed00

0800052c <LL_IOP_GRP1_EnableClock>:
  *         @arg @ref LL_IOP_GRP1_PERIPH_GPIOD
  *         @arg @ref LL_IOP_GRP1_PERIPH_GPIOF
  * @retval None
  */
__STATIC_INLINE void LL_IOP_GRP1_EnableClock(uint32_t Periphs)
{
 800052c:	b580      	push	{r7, lr}
 800052e:	b084      	sub	sp, #16
 8000530:	af00      	add	r7, sp, #0
 8000532:	6078      	str	r0, [r7, #4]
  __IO uint32_t tmpreg;
  SET_BIT(RCC->IOPENR, Periphs);
 8000534:	4b07      	ldr	r3, [pc, #28]	@ (8000554 <LL_IOP_GRP1_EnableClock+0x28>)
 8000536:	6b59      	ldr	r1, [r3, #52]	@ 0x34
 8000538:	4b06      	ldr	r3, [pc, #24]	@ (8000554 <LL_IOP_GRP1_EnableClock+0x28>)
 800053a:	687a      	ldr	r2, [r7, #4]
 800053c:	430a      	orrs	r2, r1
 800053e:	635a      	str	r2, [r3, #52]	@ 0x34
  /* Delay after an RCC peripheral clock enabling */
  tmpreg = READ_BIT(RCC->IOPENR, Periphs);
 8000540:	4b04      	ldr	r3, [pc, #16]	@ (8000554 <LL_IOP_GRP1_EnableClock+0x28>)
 8000542:	6b5b      	ldr	r3, [r3, #52]	@ 0x34
 8000544:	687a      	ldr	r2, [r7, #4]
 8000546:	4013      	ands	r3, r2
 8000548:	60fb      	str	r3, [r7, #12]
  (void)tmpreg;
 800054a:	68fb      	ldr	r3, [r7, #12]
}
 800054c:	46c0      	nop			@ (mov r8, r8)
 800054e:	46bd      	mov	sp, r7
 8000550:	b004      	add	sp, #16
 8000552:	bd80      	pop	{r7, pc}
 8000554:	40021000 	.word	0x40021000

08000558 <LL_EXTI_SetEXTISource>:
  *         @arg @ref LL_EXTI_CONFIG_LINE14
  *         @arg @ref LL_EXTI_CONFIG_LINE15
  * @retval None
  */
__STATIC_INLINE void LL_EXTI_SetEXTISource(uint32_t Port, uint32_t Line)
{
 8000558:	b590      	push	{r4, r7, lr}
 800055a:	b083      	sub	sp, #12
 800055c:	af00      	add	r7, sp, #0
 800055e:	6078      	str	r0, [r7, #4]
 8000560:	6039      	str	r1, [r7, #0]
  MODIFY_REG(EXTI->EXTICR[Line & 0x03u], EXTI_EXTICR1_EXTI0 << (Line >> LL_EXTI_REGISTER_PINPOS_SHFT), Port << \
 8000562:	4a0f      	ldr	r2, [pc, #60]	@ (80005a0 <LL_EXTI_SetEXTISource+0x48>)
 8000564:	683b      	ldr	r3, [r7, #0]
 8000566:	2103      	movs	r1, #3
 8000568:	400b      	ands	r3, r1
 800056a:	3318      	adds	r3, #24
 800056c:	009b      	lsls	r3, r3, #2
 800056e:	589b      	ldr	r3, [r3, r2]
 8000570:	683a      	ldr	r2, [r7, #0]
 8000572:	0c12      	lsrs	r2, r2, #16
 8000574:	2107      	movs	r1, #7
 8000576:	4091      	lsls	r1, r2
 8000578:	000a      	movs	r2, r1
 800057a:	43d2      	mvns	r2, r2
 800057c:	401a      	ands	r2, r3
 800057e:	0011      	movs	r1, r2
 8000580:	683b      	ldr	r3, [r7, #0]
 8000582:	0c1b      	lsrs	r3, r3, #16
 8000584:	687a      	ldr	r2, [r7, #4]
 8000586:	409a      	lsls	r2, r3
 8000588:	4805      	ldr	r0, [pc, #20]	@ (80005a0 <LL_EXTI_SetEXTISource+0x48>)
 800058a:	683b      	ldr	r3, [r7, #0]
 800058c:	2403      	movs	r4, #3
 800058e:	4023      	ands	r3, r4
 8000590:	430a      	orrs	r2, r1
 8000592:	3318      	adds	r3, #24
 8000594:	009b      	lsls	r3, r3, #2
 8000596:	501a      	str	r2, [r3, r0]
             (Line >> LL_EXTI_REGISTER_PINPOS_SHFT));
}
 8000598:	46c0      	nop			@ (mov r8, r8)
 800059a:	46bd      	mov	sp, r7
 800059c:	b003      	add	sp, #12
 800059e:	bd90      	pop	{r4, r7, pc}
 80005a0:	40021800 	.word	0x40021800

080005a4 <LL_GPIO_SetPinMode>:
  *         @arg @ref LL_GPIO_MODE_ALTERNATE
  *         @arg @ref LL_GPIO_MODE_ANALOG
  * @retval None
  */
__STATIC_INLINE void LL_GPIO_SetPinMode(GPIO_TypeDef *GPIOx, uint32_t Pin, uint32_t Mode)
{
 80005a4:	b580      	push	{r7, lr}
 80005a6:	b084      	sub	sp, #16
 80005a8:	af00      	add	r7, sp, #0
 80005aa:	60f8      	str	r0, [r7, #12]
 80005ac:	60b9      	str	r1, [r7, #8]
 80005ae:	607a      	str	r2, [r7, #4]
  MODIFY_REG(GPIOx->MODER, ((Pin * Pin) * GPIO_MODER_MODE0), ((Pin * Pin) * Mode));
 80005b0:	68fb      	ldr	r3, [r7, #12]
 80005b2:	6819      	ldr	r1, [r3, #0]
 80005b4:	68bb      	ldr	r3, [r7, #8]
 80005b6:	435b      	muls	r3, r3
 80005b8:	001a      	movs	r2, r3
 80005ba:	0013      	movs	r3, r2
 80005bc:	005b      	lsls	r3, r3, #1
 80005be:	189b      	adds	r3, r3, r2
 80005c0:	43db      	mvns	r3, r3
 80005c2:	400b      	ands	r3, r1
 80005c4:	001a      	movs	r2, r3
 80005c6:	68bb      	ldr	r3, [r7, #8]
 80005c8:	435b      	muls	r3, r3
 80005ca:	6879      	ldr	r1, [r7, #4]
 80005cc:	434b      	muls	r3, r1
 80005ce:	431a      	orrs	r2, r3
 80005d0:	68fb      	ldr	r3, [r7, #12]
 80005d2:	601a      	str	r2, [r3, #0]
}
 80005d4:	46c0      	nop			@ (mov r8, r8)
 80005d6:	46bd      	mov	sp, r7
 80005d8:	b004      	add	sp, #16
 80005da:	bd80      	pop	{r7, pc}

080005dc <LL_GPIO_SetPinPull>:
  *         @arg @ref LL_GPIO_PULL_UP
  *         @arg @ref LL_GPIO_PULL_DOWN
  * @retval None
  */
__STATIC_INLINE void LL_GPIO_SetPinPull(GPIO_TypeDef *GPIOx, uint32_t Pin, uint32_t Pull)
{
 80005dc:	b580      	push	{r7, lr}
 80005de:	b084      	sub	sp, #16
 80005e0:	af00      	add	r7, sp, #0
 80005e2:	60f8      	str	r0, [r7, #12]
 80005e4:	60b9      	str	r1, [r7, #8]
 80005e6:	607a      	str	r2, [r7, #4]
  MODIFY_REG(GPIOx->PUPDR, ((Pin * Pin) * GPIO_PUPDR_PUPD0), ((Pin * Pin) * Pull));
 80005e8:	68fb      	ldr	r3, [r7, #12]
 80005ea:	68d9      	ldr	r1, [r3, #12]
 80005ec:	68bb      	ldr	r3, [r7, #8]
 80005ee:	435b      	muls	r3, r3
 80005f0:	001a      	movs	r2, r3
 80005f2:	0013      	movs	r3, r2
 80005f4:	005b      	lsls	r3, r3, #1
 80005f6:	189b      	adds	r3, r3, r2
 80005f8:	43db      	mvns	r3, r3
 80005fa:	400b      	ands	r3, r1
 80005fc:	001a      	movs	r2, r3
 80005fe:	68bb      	ldr	r3, [r7, #8]
 8000600:	435b      	muls	r3, r3
 8000602:	6879      	ldr	r1, [r7, #4]
 8000604:	434b      	muls	r3, r1
 8000606:	431a      	orrs	r2, r3
 8000608:	68fb      	ldr	r3, [r7, #12]
 800060a:	60da      	str	r2, [r3, #12]
}
 800060c:	46c0      	nop			@ (mov r8, r8)
 800060e:	46bd      	mov	sp, r7
 8000610:	b004      	add	sp, #16
 8000612:	bd80      	pop	{r7, pc}

08000614 <LL_GPIO_ResetOutputPin>:
  *         @arg @ref LL_GPIO_PIN_15
  *         @arg @ref LL_GPIO_PIN_ALL
  * @retval None
  */
__STATIC_INLINE void LL_GPIO_ResetOutputPin(GPIO_TypeDef *GPIOx, uint32_t PinMask)
{
 8000614:	b580      	push	{r7, lr}
 8000616:	b082      	sub	sp, #8
 8000618:	af00      	add	r7, sp, #0
 800061a:	6078      	str	r0, [r7, #4]
 800061c:	6039      	str	r1, [r7, #0]
  WRITE_REG(GPIOx->BRR, PinMask);
 800061e:	687b      	ldr	r3, [r7, #4]
 8000620:	683a      	ldr	r2, [r7, #0]
 8000622:	629a      	str	r2, [r3, #40]	@ 0x28
}
 8000624:	46c0      	nop			@ (mov r8, r8)
 8000626:	46bd      	mov	sp, r7
 8000628:	b002      	add	sp, #8
 800062a:	bd80      	pop	{r7, pc}

0800062c <MX_GPIO_Init>:
        * Output
        * EVENT_OUT
        * EXTI
*/
void MX_GPIO_Init(void)
{
 800062c:	b590      	push	{r4, r7, lr}
 800062e:	b089      	sub	sp, #36	@ 0x24
 8000630:	af00      	add	r7, sp, #0

  LL_EXTI_InitTypeDef EXTI_InitStruct = {0};
 8000632:	2418      	movs	r4, #24
 8000634:	193b      	adds	r3, r7, r4
 8000636:	0018      	movs	r0, r3
 8000638:	2308      	movs	r3, #8
 800063a:	001a      	movs	r2, r3
 800063c:	2100      	movs	r1, #0
 800063e:	f002 fce1 	bl	8003004 <memset>
  LL_GPIO_InitTypeDef GPIO_InitStruct = {0};
 8000642:	003b      	movs	r3, r7
 8000644:	0018      	movs	r0, r3
 8000646:	2318      	movs	r3, #24
 8000648:	001a      	movs	r2, r3
 800064a:	2100      	movs	r1, #0
 800064c:	f002 fcda 	bl	8003004 <memset>

  /* GPIO Ports Clock Enable */
  LL_IOP_GRP1_EnableClock(LL_IOP_GRP1_PERIPH_GPIOB);
 8000650:	2002      	movs	r0, #2
 8000652:	f7ff ff6b 	bl	800052c <LL_IOP_GRP1_EnableClock>
  LL_IOP_GRP1_EnableClock(LL_IOP_GRP1_PERIPH_GPIOC);
 8000656:	2004      	movs	r0, #4
 8000658:	f7ff ff68 	bl	800052c <LL_IOP_GRP1_EnableClock>
  LL_IOP_GRP1_EnableClock(LL_IOP_GRP1_PERIPH_GPIOA);
 800065c:	2001      	movs	r0, #1
 800065e:	f7ff ff65 	bl	800052c <LL_IOP_GRP1_EnableClock>

  /**/
  LL_GPIO_ResetOutputPin(NSD_GPIO_Port, NSD_Pin);
 8000662:	2380      	movs	r3, #128	@ 0x80
 8000664:	01db      	lsls	r3, r3, #7
 8000666:	4a64      	ldr	r2, [pc, #400]	@ (80007f8 <MX_GPIO_Init+0x1cc>)
 8000668:	0019      	movs	r1, r3
 800066a:	0010      	movs	r0, r2
 800066c:	f7ff ffd2 	bl	8000614 <LL_GPIO_ResetOutputPin>

  /**/
  LL_GPIO_ResetOutputPin(LED_GPIO_Port, LED_Pin);
 8000670:	23a0      	movs	r3, #160	@ 0xa0
 8000672:	05db      	lsls	r3, r3, #23
 8000674:	2110      	movs	r1, #16
 8000676:	0018      	movs	r0, r3
 8000678:	f7ff ffcc 	bl	8000614 <LL_GPIO_ResetOutputPin>

  /**/
  LL_GPIO_ResetOutputPin(NWP_GPIO_Port, NWP_Pin);
 800067c:	23a0      	movs	r3, #160	@ 0xa0
 800067e:	05db      	lsls	r3, r3, #23
 8000680:	2120      	movs	r1, #32
 8000682:	0018      	movs	r0, r3
 8000684:	f7ff ffc6 	bl	8000614 <LL_GPIO_ResetOutputPin>

  /**/
  LL_GPIO_ResetOutputPin(NCS_GPIO_Port, NCS_Pin);
 8000688:	23a0      	movs	r3, #160	@ 0xa0
 800068a:	05db      	lsls	r3, r3, #23
 800068c:	2180      	movs	r1, #128	@ 0x80
 800068e:	0018      	movs	r0, r3
 8000690:	f7ff ffc0 	bl	8000614 <LL_GPIO_ResetOutputPin>

  /**/
  GPIO_InitStruct.Pin = NSD_Pin;
 8000694:	003b      	movs	r3, r7
 8000696:	2280      	movs	r2, #128	@ 0x80
 8000698:	01d2      	lsls	r2, r2, #7
 800069a:	601a      	str	r2, [r3, #0]
  GPIO_InitStruct.Mode = LL_GPIO_MODE_OUTPUT;
 800069c:	003b      	movs	r3, r7
 800069e:	2201      	movs	r2, #1
 80006a0:	605a      	str	r2, [r3, #4]
  GPIO_InitStruct.Speed = LL_GPIO_SPEED_FREQ_LOW;
 80006a2:	003b      	movs	r3, r7
 80006a4:	2200      	movs	r2, #0
 80006a6:	609a      	str	r2, [r3, #8]
  GPIO_InitStruct.OutputType = LL_GPIO_OUTPUT_PUSHPULL;
 80006a8:	003b      	movs	r3, r7
 80006aa:	2200      	movs	r2, #0
 80006ac:	60da      	str	r2, [r3, #12]
  GPIO_InitStruct.Pull = LL_GPIO_PULL_NO;
 80006ae:	003b      	movs	r3, r7
 80006b0:	2200      	movs	r2, #0
 80006b2:	611a      	str	r2, [r3, #16]
  LL_GPIO_Init(NSD_GPIO_Port, &GPIO_InitStruct);
 80006b4:	003b      	movs	r3, r7
 80006b6:	4a50      	ldr	r2, [pc, #320]	@ (80007f8 <MX_GPIO_Init+0x1cc>)
 80006b8:	0019      	movs	r1, r3
 80006ba:	0010      	movs	r0, r2
 80006bc:	f001 feca 	bl	8002454 <LL_GPIO_Init>

  /**/
  GPIO_InitStruct.Pin = LED_Pin;
 80006c0:	003b      	movs	r3, r7
 80006c2:	2210      	movs	r2, #16
 80006c4:	601a      	str	r2, [r3, #0]
  GPIO_InitStruct.Mode = LL_GPIO_MODE_OUTPUT;
 80006c6:	003b      	movs	r3, r7
 80006c8:	2201      	movs	r2, #1
 80006ca:	605a      	str	r2, [r3, #4]
  GPIO_InitStruct.Speed = LL_GPIO_SPEED_FREQ_LOW;
 80006cc:	003b      	movs	r3, r7
 80006ce:	2200      	movs	r2, #0
 80006d0:	609a      	str	r2, [r3, #8]
  GPIO_InitStruct.OutputType = LL_GPIO_OUTPUT_PUSHPULL;
 80006d2:	003b      	movs	r3, r7
 80006d4:	2200      	movs	r2, #0
 80006d6:	60da      	str	r2, [r3, #12]
  GPIO_InitStruct.Pull = LL_GPIO_PULL_NO;
 80006d8:	003b      	movs	r3, r7
 80006da:	2200      	movs	r2, #0
 80006dc:	611a      	str	r2, [r3, #16]
  LL_GPIO_Init(LED_GPIO_Port, &GPIO_InitStruct);
 80006de:	003a      	movs	r2, r7
 80006e0:	23a0      	movs	r3, #160	@ 0xa0
 80006e2:	05db      	lsls	r3, r3, #23
 80006e4:	0011      	movs	r1, r2
 80006e6:	0018      	movs	r0, r3
 80006e8:	f001 feb4 	bl	8002454 <LL_GPIO_Init>

  /**/
  GPIO_InitStruct.Pin = NWP_Pin;
 80006ec:	003b      	movs	r3, r7
 80006ee:	2220      	movs	r2, #32
 80006f0:	601a      	str	r2, [r3, #0]
  GPIO_InitStruct.Mode = LL_GPIO_MODE_OUTPUT;
 80006f2:	003b      	movs	r3, r7
 80006f4:	2201      	movs	r2, #1
 80006f6:	605a      	str	r2, [r3, #4]
  GPIO_InitStruct.Speed = LL_GPIO_SPEED_FREQ_LOW;
 80006f8:	003b      	movs	r3, r7
 80006fa:	2200      	movs	r2, #0
 80006fc:	609a      	str	r2, [r3, #8]
  GPIO_InitStruct.OutputType = LL_GPIO_OUTPUT_PUSHPULL;
 80006fe:	003b      	movs	r3, r7
 8000700:	2200      	movs	r2, #0
 8000702:	60da      	str	r2, [r3, #12]
  GPIO_InitStruct.Pull = LL_GPIO_PULL_NO;
 8000704:	003b      	movs	r3, r7
 8000706:	2200      	movs	r2, #0
 8000708:	611a      	str	r2, [r3, #16]
  LL_GPIO_Init(NWP_GPIO_Port, &GPIO_InitStruct);
 800070a:	003a      	movs	r2, r7
 800070c:	23a0      	movs	r3, #160	@ 0xa0
 800070e:	05db      	lsls	r3, r3, #23
 8000710:	0011      	movs	r1, r2
 8000712:	0018      	movs	r0, r3
 8000714:	f001 fe9e 	bl	8002454 <LL_GPIO_Init>

  /**/
  GPIO_InitStruct.Pin = NCS_Pin;
 8000718:	003b      	movs	r3, r7
 800071a:	2280      	movs	r2, #128	@ 0x80
 800071c:	601a      	str	r2, [r3, #0]
  GPIO_InitStruct.Mode = LL_GPIO_MODE_OUTPUT;
 800071e:	003b      	movs	r3, r7
 8000720:	2201      	movs	r2, #1
 8000722:	605a      	str	r2, [r3, #4]
  GPIO_InitStruct.Speed = LL_GPIO_SPEED_FREQ_LOW;
 8000724:	003b      	movs	r3, r7
 8000726:	2200      	movs	r2, #0
 8000728:	609a      	str	r2, [r3, #8]
  GPIO_InitStruct.OutputType = LL_GPIO_OUTPUT_PUSHPULL;
 800072a:	003b      	movs	r3, r7
 800072c:	2200      	movs	r2, #0
 800072e:	60da      	str	r2, [r3, #12]
  GPIO_InitStruct.Pull = LL_GPIO_PULL_NO;
 8000730:	003b      	movs	r3, r7
 8000732:	2200      	movs	r2, #0
 8000734:	611a      	str	r2, [r3, #16]
  LL_GPIO_Init(NCS_GPIO_Port, &GPIO_InitStruct);
 8000736:	003a      	movs	r2, r7
 8000738:	23a0      	movs	r3, #160	@ 0xa0
 800073a:	05db      	lsls	r3, r3, #23
 800073c:	0011      	movs	r1, r2
 800073e:	0018      	movs	r0, r3
 8000740:	f001 fe88 	bl	8002454 <LL_GPIO_Init>

  /**/
  EXTI_InitStruct.Line_0_31 = LL_EXTI_LINE_8;
 8000744:	0021      	movs	r1, r4
 8000746:	187b      	adds	r3, r7, r1
 8000748:	2280      	movs	r2, #128	@ 0x80
 800074a:	0052      	lsls	r2, r2, #1
 800074c:	601a      	str	r2, [r3, #0]
  EXTI_InitStruct.LineCommand = ENABLE;
 800074e:	187b      	adds	r3, r7, r1
 8000750:	2201      	movs	r2, #1
 8000752:	711a      	strb	r2, [r3, #4]
  EXTI_InitStruct.Mode = LL_EXTI_MODE_IT;
 8000754:	187b      	adds	r3, r7, r1
 8000756:	2200      	movs	r2, #0
 8000758:	715a      	strb	r2, [r3, #5]
  EXTI_InitStruct.Trigger = LL_EXTI_TRIGGER_FALLING;
 800075a:	187b      	adds	r3, r7, r1
 800075c:	2202      	movs	r2, #2
 800075e:	719a      	strb	r2, [r3, #6]
  LL_EXTI_Init(&EXTI_InitStruct);
 8000760:	000c      	movs	r4, r1
 8000762:	187b      	adds	r3, r7, r1
 8000764:	0018      	movs	r0, r3
 8000766:	f001 fd35 	bl	80021d4 <LL_EXTI_Init>

  /**/
  EXTI_InitStruct.Line_0_31 = LL_EXTI_LINE_11;
 800076a:	0021      	movs	r1, r4
 800076c:	187b      	adds	r3, r7, r1
 800076e:	2280      	movs	r2, #128	@ 0x80
 8000770:	0112      	lsls	r2, r2, #4
 8000772:	601a      	str	r2, [r3, #0]
  EXTI_InitStruct.LineCommand = ENABLE;
 8000774:	187b      	adds	r3, r7, r1
 8000776:	2201      	movs	r2, #1
 8000778:	711a      	strb	r2, [r3, #4]
  EXTI_InitStruct.Mode = LL_EXTI_MODE_IT;
 800077a:	187b      	adds	r3, r7, r1
 800077c:	2200      	movs	r2, #0
 800077e:	715a      	strb	r2, [r3, #5]
  EXTI_InitStruct.Trigger = LL_EXTI_TRIGGER_FALLING;
 8000780:	187b      	adds	r3, r7, r1
 8000782:	2202      	movs	r2, #2
 8000784:	719a      	strb	r2, [r3, #6]
  LL_EXTI_Init(&EXTI_InitStruct);
 8000786:	187b      	adds	r3, r7, r1
 8000788:	0018      	movs	r0, r3
 800078a:	f001 fd23 	bl	80021d4 <LL_EXTI_Init>

  /**/
  LL_GPIO_SetPinMode(Trigger_GPIO_Port, Trigger_Pin, LL_GPIO_MODE_INPUT);
 800078e:	2380      	movs	r3, #128	@ 0x80
 8000790:	0059      	lsls	r1, r3, #1
 8000792:	23a0      	movs	r3, #160	@ 0xa0
 8000794:	05db      	lsls	r3, r3, #23
 8000796:	2200      	movs	r2, #0
 8000798:	0018      	movs	r0, r3
 800079a:	f7ff ff03 	bl	80005a4 <LL_GPIO_SetPinMode>

  /**/
  LL_GPIO_SetPinMode(Button_GPIO_Port, Button_Pin, LL_GPIO_MODE_INPUT);
 800079e:	2380      	movs	r3, #128	@ 0x80
 80007a0:	0119      	lsls	r1, r3, #4
 80007a2:	23a0      	movs	r3, #160	@ 0xa0
 80007a4:	05db      	lsls	r3, r3, #23
 80007a6:	2200      	movs	r2, #0
 80007a8:	0018      	movs	r0, r3
 80007aa:	f7ff fefb 	bl	80005a4 <LL_GPIO_SetPinMode>

  /**/
  LL_GPIO_SetPinPull(Trigger_GPIO_Port, Trigger_Pin, LL_GPIO_PULL_NO);
 80007ae:	2380      	movs	r3, #128	@ 0x80
 80007b0:	0059      	lsls	r1, r3, #1
 80007b2:	23a0      	movs	r3, #160	@ 0xa0
 80007b4:	05db      	lsls	r3, r3, #23
 80007b6:	2200      	movs	r2, #0
 80007b8:	0018      	movs	r0, r3
 80007ba:	f7ff ff0f 	bl	80005dc <LL_GPIO_SetPinPull>

  /**/
  LL_GPIO_SetPinPull(Button_GPIO_Port, Button_Pin, LL_GPIO_PULL_NO);
 80007be:	2380      	movs	r3, #128	@ 0x80
 80007c0:	0119      	lsls	r1, r3, #4
 80007c2:	23a0      	movs	r3, #160	@ 0xa0
 80007c4:	05db      	lsls	r3, r3, #23
 80007c6:	2200      	movs	r2, #0
 80007c8:	0018      	movs	r0, r3
 80007ca:	f7ff ff07 	bl	80005dc <LL_GPIO_SetPinPull>

  /**/
  LL_EXTI_SetEXTISource(LL_EXTI_CONFIG_PORTA, LL_EXTI_CONFIG_LINE8);
 80007ce:	2102      	movs	r1, #2
 80007d0:	2000      	movs	r0, #0
 80007d2:	f7ff fec1 	bl	8000558 <LL_EXTI_SetEXTISource>

  /**/
  LL_EXTI_SetEXTISource(LL_EXTI_CONFIG_PORTA, LL_EXTI_CONFIG_LINE11);
 80007d6:	4b09      	ldr	r3, [pc, #36]	@ (80007fc <MX_GPIO_Init+0x1d0>)
 80007d8:	0019      	movs	r1, r3
 80007da:	2000      	movs	r0, #0
 80007dc:	f7ff febc 	bl	8000558 <LL_EXTI_SetEXTISource>

  /* EXTI interrupt init*/
  NVIC_SetPriority(EXTI4_15_IRQn, 0);
 80007e0:	2100      	movs	r1, #0
 80007e2:	2007      	movs	r0, #7
 80007e4:	f7ff fe34 	bl	8000450 <__NVIC_SetPriority>
  NVIC_EnableIRQ(EXTI4_15_IRQn);
 80007e8:	2007      	movs	r0, #7
 80007ea:	f7ff fe17 	bl	800041c <__NVIC_EnableIRQ>

}
 80007ee:	46c0      	nop			@ (mov r8, r8)
 80007f0:	46bd      	mov	sp, r7
 80007f2:	b009      	add	sp, #36	@ 0x24
 80007f4:	bd90      	pop	{r4, r7, pc}
 80007f6:	46c0      	nop			@ (mov r8, r8)
 80007f8:	50000800 	.word	0x50000800
 80007fc:	00180002 	.word	0x00180002

08000800 <__NVIC_SetPriority>:
{
 8000800:	b590      	push	{r4, r7, lr}
 8000802:	b083      	sub	sp, #12
 8000804:	af00      	add	r7, sp, #0
 8000806:	0002      	movs	r2, r0
 8000808:	6039      	str	r1, [r7, #0]
 800080a:	1dfb      	adds	r3, r7, #7
 800080c:	701a      	strb	r2, [r3, #0]
  if ((int32_t)(IRQn) >= 0)
 800080e:	1dfb      	adds	r3, r7, #7
 8000810:	781b      	ldrb	r3, [r3, #0]
 8000812:	2b7f      	cmp	r3, #127	@ 0x7f
 8000814:	d828      	bhi.n	8000868 <__NVIC_SetPriority+0x68>
    NVIC->IP[_IP_IDX(IRQn)]  = ((uint32_t)(NVIC->IP[_IP_IDX(IRQn)]  & ~(0xFFUL << _BIT_SHIFT(IRQn))) |
 8000816:	4a2f      	ldr	r2, [pc, #188]	@ (80008d4 <__NVIC_SetPriority+0xd4>)
 8000818:	1dfb      	adds	r3, r7, #7
 800081a:	781b      	ldrb	r3, [r3, #0]
 800081c:	b25b      	sxtb	r3, r3
 800081e:	089b      	lsrs	r3, r3, #2
 8000820:	33c0      	adds	r3, #192	@ 0xc0
 8000822:	009b      	lsls	r3, r3, #2
 8000824:	589b      	ldr	r3, [r3, r2]
 8000826:	1dfa      	adds	r2, r7, #7
 8000828:	7812      	ldrb	r2, [r2, #0]
 800082a:	0011      	movs	r1, r2
 800082c:	2203      	movs	r2, #3
 800082e:	400a      	ands	r2, r1
 8000830:	00d2      	lsls	r2, r2, #3
 8000832:	21ff      	movs	r1, #255	@ 0xff
 8000834:	4091      	lsls	r1, r2
 8000836:	000a      	movs	r2, r1
 8000838:	43d2      	mvns	r2, r2
 800083a:	401a      	ands	r2, r3
 800083c:	0011      	movs	r1, r2
       (((priority << (8U - __NVIC_PRIO_BITS)) & (uint32_t)0xFFUL) << _BIT_SHIFT(IRQn)));
 800083e:	683b      	ldr	r3, [r7, #0]
 8000840:	019b      	lsls	r3, r3, #6
 8000842:	22ff      	movs	r2, #255	@ 0xff
 8000844:	401a      	ands	r2, r3
 8000846:	1dfb      	adds	r3, r7, #7
 8000848:	781b      	ldrb	r3, [r3, #0]
 800084a:	0018      	movs	r0, r3
 800084c:	2303      	movs	r3, #3
 800084e:	4003      	ands	r3, r0
 8000850:	00db      	lsls	r3, r3, #3
 8000852:	409a      	lsls	r2, r3
    NVIC->IP[_IP_IDX(IRQn)]  = ((uint32_t)(NVIC->IP[_IP_IDX(IRQn)]  & ~(0xFFUL << _BIT_SHIFT(IRQn))) |
 8000854:	481f      	ldr	r0, [pc, #124]	@ (80008d4 <__NVIC_SetPriority+0xd4>)
 8000856:	1dfb      	adds	r3, r7, #7
 8000858:	781b      	ldrb	r3, [r3, #0]
 800085a:	b25b      	sxtb	r3, r3
 800085c:	089b      	lsrs	r3, r3, #2
 800085e:	430a      	orrs	r2, r1
 8000860:	33c0      	adds	r3, #192	@ 0xc0
 8000862:	009b      	lsls	r3, r3, #2
 8000864:	501a      	str	r2, [r3, r0]
}
 8000866:	e031      	b.n	80008cc <__NVIC_SetPriority+0xcc>
    SCB->SHP[_SHP_IDX(IRQn)] = ((uint32_t)(SCB->SHP[_SHP_IDX(IRQn)] & ~(0xFFUL << _BIT_SHIFT(IRQn))) |
 8000868:	4a1b      	ldr	r2, [pc, #108]	@ (80008d8 <__NVIC_SetPriority+0xd8>)
 800086a:	1dfb      	adds	r3, r7, #7
 800086c:	781b      	ldrb	r3, [r3, #0]
 800086e:	0019      	movs	r1, r3
 8000870:	230f      	movs	r3, #15
 8000872:	400b      	ands	r3, r1
 8000874:	3b08      	subs	r3, #8
 8000876:	089b      	lsrs	r3, r3, #2
 8000878:	3306      	adds	r3, #6
 800087a:	009b      	lsls	r3, r3, #2
 800087c:	18d3      	adds	r3, r2, r3
 800087e:	3304      	adds	r3, #4
 8000880:	681b      	ldr	r3, [r3, #0]
 8000882:	1dfa      	adds	r2, r7, #7
 8000884:	7812      	ldrb	r2, [r2, #0]
 8000886:	0011      	movs	r1, r2
 8000888:	2203      	movs	r2, #3
 800088a:	400a      	ands	r2, r1
 800088c:	00d2      	lsls	r2, r2, #3
 800088e:	21ff      	movs	r1, #255	@ 0xff
 8000890:	4091      	lsls	r1, r2
 8000892:	000a      	movs	r2, r1
 8000894:	43d2      	mvns	r2, r2
 8000896:	401a      	ands	r2, r3
 8000898:	0011      	movs	r1, r2
       (((priority << (8U - __NVIC_PRIO_BITS)) & (uint32_t)0xFFUL) << _BIT_SHIFT(IRQn)));
 800089a:	683b      	ldr	r3, [r7, #0]
 800089c:	019b      	lsls	r3, r3, #6
 800089e:	22ff      	movs	r2, #255	@ 0xff
 80008a0:	401a      	ands	r2, r3
 80008a2:	1dfb      	adds	r3, r7, #7
 80008a4:	781b      	ldrb	r3, [r3, #0]
 80008a6:	0018      	movs	r0, r3
 80008a8:	2303      	movs	r3, #3
 80008aa:	4003      	ands	r3, r0
 80008ac:	00db      	lsls	r3, r3, #3
 80008ae:	409a      	lsls	r2, r3
    SCB->SHP[_SHP_IDX(IRQn)] = ((uint32_t)(SCB->SHP[_SHP_IDX(IRQn)] & ~(0xFFUL << _BIT_SHIFT(IRQn))) |
 80008b0:	4809      	ldr	r0, [pc, #36]	@ (80008d8 <__NVIC_SetPriority+0xd8>)
 80008b2:	1dfb      	adds	r3, r7, #7
 80008b4:	781b      	ldrb	r3, [r3, #0]
 80008b6:	001c      	movs	r4, r3
 80008b8:	230f      	movs	r3, #15
 80008ba:	4023      	ands	r3, r4
 80008bc:	3b08      	subs	r3, #8
 80008be:	089b      	lsrs	r3, r3, #2
 80008c0:	430a      	orrs	r2, r1
 80008c2:	3306      	adds	r3, #6
 80008c4:	009b      	lsls	r3, r3, #2
 80008c6:	18c3      	adds	r3, r0, r3
 80008c8:	3304      	adds	r3, #4
 80008ca:	601a      	str	r2, [r3, #0]
}
 80008cc:	46c0      	nop			@ (mov r8, r8)
 80008ce:	46bd      	mov	sp, r7
 80008d0:	b003      	add	sp, #12
 80008d2:	bd90      	pop	{r4, r7, pc}
 80008d4:	e000e100 	.word	0xe000e100
 80008d8:	e000ed00 	.word	0xe000ed00

080008dc <LL_RCC_HSI_Enable>:
  * @brief  Enable HSI oscillator
  * @rmtoll CR           HSION         LL_RCC_HSI_Enable
  * @retval None
  */
__STATIC_INLINE void LL_RCC_HSI_Enable(void)
{
 80008dc:	b580      	push	{r7, lr}
 80008de:	af00      	add	r7, sp, #0
  SET_BIT(RCC->CR, RCC_CR_HSION);
 80008e0:	4b04      	ldr	r3, [pc, #16]	@ (80008f4 <LL_RCC_HSI_Enable+0x18>)
 80008e2:	681a      	ldr	r2, [r3, #0]
 80008e4:	4b03      	ldr	r3, [pc, #12]	@ (80008f4 <LL_RCC_HSI_Enable+0x18>)
 80008e6:	2180      	movs	r1, #128	@ 0x80
 80008e8:	0049      	lsls	r1, r1, #1
 80008ea:	430a      	orrs	r2, r1
 80008ec:	601a      	str	r2, [r3, #0]
}
 80008ee:	46c0      	nop			@ (mov r8, r8)
 80008f0:	46bd      	mov	sp, r7
 80008f2:	bd80      	pop	{r7, pc}
 80008f4:	40021000 	.word	0x40021000

080008f8 <LL_RCC_HSI_IsReady>:
  * @brief  Check if HSI clock is ready
  * @rmtoll CR           HSIRDY        LL_RCC_HSI_IsReady
  * @retval State of bit (1 or 0).
  */
__STATIC_INLINE uint32_t LL_RCC_HSI_IsReady(void)
{
 80008f8:	b580      	push	{r7, lr}
 80008fa:	af00      	add	r7, sp, #0
  return ((READ_BIT(RCC->CR, RCC_CR_HSIRDY) == (RCC_CR_HSIRDY)) ? 1UL : 0UL);
 80008fc:	4b07      	ldr	r3, [pc, #28]	@ (800091c <LL_RCC_HSI_IsReady+0x24>)
 80008fe:	681a      	ldr	r2, [r3, #0]
 8000900:	2380      	movs	r3, #128	@ 0x80
 8000902:	00db      	lsls	r3, r3, #3
 8000904:	401a      	ands	r2, r3
 8000906:	2380      	movs	r3, #128	@ 0x80
 8000908:	00db      	lsls	r3, r3, #3
 800090a:	429a      	cmp	r2, r3
 800090c:	d101      	bne.n	8000912 <LL_RCC_HSI_IsReady+0x1a>
 800090e:	2301      	movs	r3, #1
 8000910:	e000      	b.n	8000914 <LL_RCC_HSI_IsReady+0x1c>
 8000912:	2300      	movs	r3, #0
}
 8000914:	0018      	movs	r0, r3
 8000916:	46bd      	mov	sp, r7
 8000918:	bd80      	pop	{r7, pc}
 800091a:	46c0      	nop			@ (mov r8, r8)
 800091c:	40021000 	.word	0x40021000

08000920 <LL_RCC_HSI_SetCalibTrimming>:
  * @rmtoll ICSCR        HSITRIM       LL_RCC_HSI_SetCalibTrimming
  * @param  Value Between Min_Data = 0 and Max_Data = 127
  * @retval None
  */
__STATIC_INLINE void LL_RCC_HSI_SetCalibTrimming(uint32_t Value)
{
 8000920:	b580      	push	{r7, lr}
 8000922:	b082      	sub	sp, #8
 8000924:	af00      	add	r7, sp, #0
 8000926:	6078      	str	r0, [r7, #4]
  MODIFY_REG(RCC->ICSCR, RCC_ICSCR_HSITRIM, Value << RCC_ICSCR_HSITRIM_Pos);
 8000928:	4b06      	ldr	r3, [pc, #24]	@ (8000944 <LL_RCC_HSI_SetCalibTrimming+0x24>)
 800092a:	685b      	ldr	r3, [r3, #4]
 800092c:	4a06      	ldr	r2, [pc, #24]	@ (8000948 <LL_RCC_HSI_SetCalibTrimming+0x28>)
 800092e:	4013      	ands	r3, r2
 8000930:	0019      	movs	r1, r3
 8000932:	687b      	ldr	r3, [r7, #4]
 8000934:	021a      	lsls	r2, r3, #8
 8000936:	4b03      	ldr	r3, [pc, #12]	@ (8000944 <LL_RCC_HSI_SetCalibTrimming+0x24>)
 8000938:	430a      	orrs	r2, r1
 800093a:	605a      	str	r2, [r3, #4]
}
 800093c:	46c0      	nop			@ (mov r8, r8)
 800093e:	46bd      	mov	sp, r7
 8000940:	b002      	add	sp, #8
 8000942:	bd80      	pop	{r7, pc}
 8000944:	40021000 	.word	0x40021000
 8000948:	ffff80ff 	.word	0xffff80ff

0800094c <LL_RCC_SetSysClkSource>:
  *         @arg @ref LL_RCC_SYS_CLKSOURCE_LSE
  * @note (*) peripheral not available on all devices
  * @retval None
  */
__STATIC_INLINE void LL_RCC_SetSysClkSource(uint32_t Source)
{
 800094c:	b580      	push	{r7, lr}
 800094e:	b082      	sub	sp, #8
 8000950:	af00      	add	r7, sp, #0
 8000952:	6078      	str	r0, [r7, #4]
  MODIFY_REG(RCC->CFGR, RCC_CFGR_SW, Source);
 8000954:	4b06      	ldr	r3, [pc, #24]	@ (8000970 <LL_RCC_SetSysClkSource+0x24>)
 8000956:	689b      	ldr	r3, [r3, #8]
 8000958:	2207      	movs	r2, #7
 800095a:	4393      	bics	r3, r2
 800095c:	0019      	movs	r1, r3
 800095e:	4b04      	ldr	r3, [pc, #16]	@ (8000970 <LL_RCC_SetSysClkSource+0x24>)
 8000960:	687a      	ldr	r2, [r7, #4]
 8000962:	430a      	orrs	r2, r1
 8000964:	609a      	str	r2, [r3, #8]
}
 8000966:	46c0      	nop			@ (mov r8, r8)
 8000968:	46bd      	mov	sp, r7
 800096a:	b002      	add	sp, #8
 800096c:	bd80      	pop	{r7, pc}
 800096e:	46c0      	nop			@ (mov r8, r8)
 8000970:	40021000 	.word	0x40021000

08000974 <LL_RCC_GetSysClkSource>:
  *         @arg @ref LL_RCC_SYS_CLKSOURCE_STATUS_LSI
  *         @arg @ref LL_RCC_SYS_CLKSOURCE_STATUS_LSE
  * @note (*) peripheral not available on all devices
  */
__STATIC_INLINE uint32_t LL_RCC_GetSysClkSource(void)
{
 8000974:	b580      	push	{r7, lr}
 8000976:	af00      	add	r7, sp, #0
  return (uint32_t)(READ_BIT(RCC->CFGR, RCC_CFGR_SWS));
 8000978:	4b03      	ldr	r3, [pc, #12]	@ (8000988 <LL_RCC_GetSysClkSource+0x14>)
 800097a:	689b      	ldr	r3, [r3, #8]
 800097c:	2238      	movs	r2, #56	@ 0x38
 800097e:	4013      	ands	r3, r2
}
 8000980:	0018      	movs	r0, r3
 8000982:	46bd      	mov	sp, r7
 8000984:	bd80      	pop	{r7, pc}
 8000986:	46c0      	nop			@ (mov r8, r8)
 8000988:	40021000 	.word	0x40021000

0800098c <LL_RCC_SetAHBPrescaler>:
  *         @arg @ref LL_RCC_HCLK_DIV_256
  *         @arg @ref LL_RCC_HCLK_DIV_512
  * @retval None
  */
__STATIC_INLINE void LL_RCC_SetAHBPrescaler(uint32_t Prescaler)
{
 800098c:	b580      	push	{r7, lr}
 800098e:	b082      	sub	sp, #8
 8000990:	af00      	add	r7, sp, #0
 8000992:	6078      	str	r0, [r7, #4]
  MODIFY_REG(RCC->CFGR, RCC_CFGR_HPRE, Prescaler);
 8000994:	4b06      	ldr	r3, [pc, #24]	@ (80009b0 <LL_RCC_SetAHBPrescaler+0x24>)
 8000996:	689b      	ldr	r3, [r3, #8]
 8000998:	4a06      	ldr	r2, [pc, #24]	@ (80009b4 <LL_RCC_SetAHBPrescaler+0x28>)
 800099a:	4013      	ands	r3, r2
 800099c:	0019      	movs	r1, r3
 800099e:	4b04      	ldr	r3, [pc, #16]	@ (80009b0 <LL_RCC_SetAHBPrescaler+0x24>)
 80009a0:	687a      	ldr	r2, [r7, #4]
 80009a2:	430a      	orrs	r2, r1
 80009a4:	609a      	str	r2, [r3, #8]
}
 80009a6:	46c0      	nop			@ (mov r8, r8)
 80009a8:	46bd      	mov	sp, r7
 80009aa:	b002      	add	sp, #8
 80009ac:	bd80      	pop	{r7, pc}
 80009ae:	46c0      	nop			@ (mov r8, r8)
 80009b0:	40021000 	.word	0x40021000
 80009b4:	fffff0ff 	.word	0xfffff0ff

080009b8 <LL_RCC_SetAPB1Prescaler>:
  *         @arg @ref LL_RCC_APB1_DIV_8
  *         @arg @ref LL_RCC_APB1_DIV_16
  * @retval None
  */
__STATIC_INLINE void LL_RCC_SetAPB1Prescaler(uint32_t Prescaler)
{
 80009b8:	b580      	push	{r7, lr}
 80009ba:	b082      	sub	sp, #8
 80009bc:	af00      	add	r7, sp, #0
 80009be:	6078      	str	r0, [r7, #4]
  MODIFY_REG(RCC->CFGR, RCC_CFGR_PPRE, Prescaler);
 80009c0:	4b06      	ldr	r3, [pc, #24]	@ (80009dc <LL_RCC_SetAPB1Prescaler+0x24>)
 80009c2:	689b      	ldr	r3, [r3, #8]
 80009c4:	4a06      	ldr	r2, [pc, #24]	@ (80009e0 <LL_RCC_SetAPB1Prescaler+0x28>)
 80009c6:	4013      	ands	r3, r2
 80009c8:	0019      	movs	r1, r3
 80009ca:	4b04      	ldr	r3, [pc, #16]	@ (80009dc <LL_RCC_SetAPB1Prescaler+0x24>)
 80009cc:	687a      	ldr	r2, [r7, #4]
 80009ce:	430a      	orrs	r2, r1
 80009d0:	609a      	str	r2, [r3, #8]
}
 80009d2:	46c0      	nop			@ (mov r8, r8)
 80009d4:	46bd      	mov	sp, r7
 80009d6:	b002      	add	sp, #8
 80009d8:	bd80      	pop	{r7, pc}
 80009da:	46c0      	nop			@ (mov r8, r8)
 80009dc:	40021000 	.word	0x40021000
 80009e0:	ffff8fff 	.word	0xffff8fff

080009e4 <LL_RCC_SetHSIDiv>:
  *         @arg @ref LL_RCC_HSI_DIV_64
  *         @arg @ref LL_RCC_HSI_DIV_128
  * @retval None
  */
__STATIC_INLINE void LL_RCC_SetHSIDiv(uint32_t HSIDiv)
{
 80009e4:	b580      	push	{r7, lr}
 80009e6:	b082      	sub	sp, #8
 80009e8:	af00      	add	r7, sp, #0
 80009ea:	6078      	str	r0, [r7, #4]
  MODIFY_REG(RCC->CR, RCC_CR_HSIDIV, HSIDiv);
 80009ec:	4b06      	ldr	r3, [pc, #24]	@ (8000a08 <LL_RCC_SetHSIDiv+0x24>)
 80009ee:	681b      	ldr	r3, [r3, #0]
 80009f0:	4a06      	ldr	r2, [pc, #24]	@ (8000a0c <LL_RCC_SetHSIDiv+0x28>)
 80009f2:	4013      	ands	r3, r2
 80009f4:	0019      	movs	r1, r3
 80009f6:	4b04      	ldr	r3, [pc, #16]	@ (8000a08 <LL_RCC_SetHSIDiv+0x24>)
 80009f8:	687a      	ldr	r2, [r7, #4]
 80009fa:	430a      	orrs	r2, r1
 80009fc:	601a      	str	r2, [r3, #0]
}
 80009fe:	46c0      	nop			@ (mov r8, r8)
 8000a00:	46bd      	mov	sp, r7
 8000a02:	b002      	add	sp, #8
 8000a04:	bd80      	pop	{r7, pc}
 8000a06:	46c0      	nop			@ (mov r8, r8)
 8000a08:	40021000 	.word	0x40021000
 8000a0c:	ffffc7ff 	.word	0xffffc7ff

08000a10 <LL_APB1_GRP1_EnableClock>:
{
 8000a10:	b580      	push	{r7, lr}
 8000a12:	b084      	sub	sp, #16
 8000a14:	af00      	add	r7, sp, #0
 8000a16:	6078      	str	r0, [r7, #4]
  SET_BIT(RCC->APBENR1, Periphs);
 8000a18:	4b07      	ldr	r3, [pc, #28]	@ (8000a38 <LL_APB1_GRP1_EnableClock+0x28>)
 8000a1a:	6bd9      	ldr	r1, [r3, #60]	@ 0x3c
 8000a1c:	4b06      	ldr	r3, [pc, #24]	@ (8000a38 <LL_APB1_GRP1_EnableClock+0x28>)
 8000a1e:	687a      	ldr	r2, [r7, #4]
 8000a20:	430a      	orrs	r2, r1
 8000a22:	63da      	str	r2, [r3, #60]	@ 0x3c
  tmpreg = READ_BIT(RCC->APBENR1, Periphs);
 8000a24:	4b04      	ldr	r3, [pc, #16]	@ (8000a38 <LL_APB1_GRP1_EnableClock+0x28>)
 8000a26:	6bdb      	ldr	r3, [r3, #60]	@ 0x3c
 8000a28:	687a      	ldr	r2, [r7, #4]
 8000a2a:	4013      	ands	r3, r2
 8000a2c:	60fb      	str	r3, [r7, #12]
  (void)tmpreg;
 8000a2e:	68fb      	ldr	r3, [r7, #12]
}
 8000a30:	46c0      	nop			@ (mov r8, r8)
 8000a32:	46bd      	mov	sp, r7
 8000a34:	b004      	add	sp, #16
 8000a36:	bd80      	pop	{r7, pc}
 8000a38:	40021000 	.word	0x40021000

08000a3c <LL_APB1_GRP2_EnableClock>:
{
 8000a3c:	b580      	push	{r7, lr}
 8000a3e:	b084      	sub	sp, #16
 8000a40:	af00      	add	r7, sp, #0
 8000a42:	6078      	str	r0, [r7, #4]
  SET_BIT(RCC->APBENR2, Periphs);
 8000a44:	4b07      	ldr	r3, [pc, #28]	@ (8000a64 <LL_APB1_GRP2_EnableClock+0x28>)
 8000a46:	6c19      	ldr	r1, [r3, #64]	@ 0x40
 8000a48:	4b06      	ldr	r3, [pc, #24]	@ (8000a64 <LL_APB1_GRP2_EnableClock+0x28>)
 8000a4a:	687a      	ldr	r2, [r7, #4]
 8000a4c:	430a      	orrs	r2, r1
 8000a4e:	641a      	str	r2, [r3, #64]	@ 0x40
  tmpreg = READ_BIT(RCC->APBENR2, Periphs);
 8000a50:	4b04      	ldr	r3, [pc, #16]	@ (8000a64 <LL_APB1_GRP2_EnableClock+0x28>)
 8000a52:	6c1b      	ldr	r3, [r3, #64]	@ 0x40
 8000a54:	687a      	ldr	r2, [r7, #4]
 8000a56:	4013      	ands	r3, r2
 8000a58:	60fb      	str	r3, [r7, #12]
  (void)tmpreg;
 8000a5a:	68fb      	ldr	r3, [r7, #12]
}
 8000a5c:	46c0      	nop			@ (mov r8, r8)
 8000a5e:	46bd      	mov	sp, r7
 8000a60:	b004      	add	sp, #16
 8000a62:	bd80      	pop	{r7, pc}
 8000a64:	40021000 	.word	0x40021000

08000a68 <LL_FLASH_SetLatency>:
  *         @arg @ref LL_FLASH_LATENCY_0
  *         @arg @ref LL_FLASH_LATENCY_1
  * @retval None
  */
__STATIC_INLINE void LL_FLASH_SetLatency(uint32_t Latency)
{
 8000a68:	b580      	push	{r7, lr}
 8000a6a:	b082      	sub	sp, #8
 8000a6c:	af00      	add	r7, sp, #0
 8000a6e:	6078      	str	r0, [r7, #4]
  MODIFY_REG(FLASH->ACR, FLASH_ACR_LATENCY, Latency);
 8000a70:	4b06      	ldr	r3, [pc, #24]	@ (8000a8c <LL_FLASH_SetLatency+0x24>)
 8000a72:	681b      	ldr	r3, [r3, #0]
 8000a74:	2207      	movs	r2, #7
 8000a76:	4393      	bics	r3, r2
 8000a78:	0019      	movs	r1, r3
 8000a7a:	4b04      	ldr	r3, [pc, #16]	@ (8000a8c <LL_FLASH_SetLatency+0x24>)
 8000a7c:	687a      	ldr	r2, [r7, #4]
 8000a7e:	430a      	orrs	r2, r1
 8000a80:	601a      	str	r2, [r3, #0]
}
 8000a82:	46c0      	nop			@ (mov r8, r8)
 8000a84:	46bd      	mov	sp, r7
 8000a86:	b002      	add	sp, #8
 8000a88:	bd80      	pop	{r7, pc}
 8000a8a:	46c0      	nop			@ (mov r8, r8)
 8000a8c:	40022000 	.word	0x40022000

08000a90 <main>:
/**
  * @brief  The application entry point.
  * @retval int
  */
int main(void)
{
 8000a90:	b580      	push	{r7, lr}
 8000a92:	af00      	add	r7, sp, #0
  /* USER CODE END 1 */

  /* MCU Configuration--------------------------------------------------------*/

  /* Reset of all peripherals, Initializes the Flash interface and the Systick. */
  LL_APB2_GRP1_EnableClock(LL_APB2_GRP1_PERIPH_SYSCFG);
 8000a94:	2001      	movs	r0, #1
 8000a96:	f7ff ffd1 	bl	8000a3c <LL_APB1_GRP2_EnableClock>
  LL_APB1_GRP1_EnableClock(LL_APB1_GRP1_PERIPH_PWR);
 8000a9a:	2380      	movs	r3, #128	@ 0x80
 8000a9c:	055b      	lsls	r3, r3, #21
 8000a9e:	0018      	movs	r0, r3
 8000aa0:	f7ff ffb6 	bl	8000a10 <LL_APB1_GRP1_EnableClock>

  /* SysTick_IRQn interrupt configuration */
  NVIC_SetPriority(SysTick_IRQn, 3);
 8000aa4:	2301      	movs	r3, #1
 8000aa6:	425b      	negs	r3, r3
 8000aa8:	2103      	movs	r1, #3
 8000aaa:	0018      	movs	r0, r3
 8000aac:	f7ff fea8 	bl	8000800 <__NVIC_SetPriority>
  /* USER CODE BEGIN Init */

  /* USER CODE END Init */

  /* Configure the system clock */
  SystemClock_Config();
 8000ab0:	f000 f80c 	bl	8000acc <SystemClock_Config>
  /* USER CODE BEGIN SysInit */

  /* USER CODE END SysInit */

  /* Initialize all configured peripherals */
  MX_GPIO_Init();
 8000ab4:	f7ff fdba 	bl	800062c <MX_GPIO_Init>
  MX_SPI1_Init();
 8000ab8:	f000 f936 	bl	8000d28 <MX_SPI1_Init>
  MX_TIM1_Init();
 8000abc:	f001 f9ec 	bl	8001e98 <MX_TIM1_Init>
  /* USER CODE END 2 */

  /* Infinite loop */
  /* USER CODE BEGIN WHILE */

  SystemBoot();
 8000ac0:	f000 fe02 	bl	80016c8 <SystemBoot>
  //LL_TIM_OC_SetMode(TIM1, LL_TIM_CHANNEL_CH4, LL_TIM_OCMODE_PWM1);
  ----------------------------------------------------------------*/

  while (1)
  {
	NewMain();
 8000ac4:	f000 ffa0 	bl	8001a08 <NewMain>
 8000ac8:	e7fc      	b.n	8000ac4 <main+0x34>
	...

08000acc <SystemClock_Config>:
/**
  * @brief System Clock Configuration
  * @retval None
  */
void SystemClock_Config(void)
{
 8000acc:	b580      	push	{r7, lr}
 8000ace:	af00      	add	r7, sp, #0

  LL_FLASH_SetLatency(LL_FLASH_LATENCY_1);
 8000ad0:	2001      	movs	r0, #1
 8000ad2:	f7ff ffc9 	bl	8000a68 <LL_FLASH_SetLatency>

  /* HSI configuration and activation */
  LL_RCC_HSI_Enable();
 8000ad6:	f7ff ff01 	bl	80008dc <LL_RCC_HSI_Enable>
  while(LL_RCC_HSI_IsReady() != 1)
 8000ada:	46c0      	nop			@ (mov r8, r8)
 8000adc:	f7ff ff0c 	bl	80008f8 <LL_RCC_HSI_IsReady>
 8000ae0:	0003      	movs	r3, r0
 8000ae2:	2b01      	cmp	r3, #1
 8000ae4:	d1fa      	bne.n	8000adc <SystemClock_Config+0x10>
  {
  }

  LL_RCC_HSI_SetCalibTrimming(64);
 8000ae6:	2040      	movs	r0, #64	@ 0x40
 8000ae8:	f7ff ff1a 	bl	8000920 <LL_RCC_HSI_SetCalibTrimming>
  LL_RCC_SetHSIDiv(LL_RCC_HSI_DIV_1);
 8000aec:	2000      	movs	r0, #0
 8000aee:	f7ff ff79 	bl	80009e4 <LL_RCC_SetHSIDiv>
  /* Set AHB prescaler*/
  LL_RCC_SetAHBPrescaler(LL_RCC_HCLK_DIV_1);
 8000af2:	2000      	movs	r0, #0
 8000af4:	f7ff ff4a 	bl	800098c <LL_RCC_SetAHBPrescaler>

  /* Sysclk activation on the HSI */
  LL_RCC_SetSysClkSource(LL_RCC_SYS_CLKSOURCE_HSI);
 8000af8:	2000      	movs	r0, #0
 8000afa:	f7ff ff27 	bl	800094c <LL_RCC_SetSysClkSource>
  while(LL_RCC_GetSysClkSource() != LL_RCC_SYS_CLKSOURCE_STATUS_HSI)
 8000afe:	46c0      	nop			@ (mov r8, r8)
 8000b00:	f7ff ff38 	bl	8000974 <LL_RCC_GetSysClkSource>
 8000b04:	1e03      	subs	r3, r0, #0
 8000b06:	d1fb      	bne.n	8000b00 <SystemClock_Config+0x34>
  {
  }

  /* Set APB1 prescaler*/
  LL_RCC_SetAPB1Prescaler(LL_RCC_APB1_DIV_1);
 8000b08:	2000      	movs	r0, #0
 8000b0a:	f7ff ff55 	bl	80009b8 <LL_RCC_SetAPB1Prescaler>
  LL_Init1msTick(48000000);
 8000b0e:	4b05      	ldr	r3, [pc, #20]	@ (8000b24 <SystemClock_Config+0x58>)
 8000b10:	0018      	movs	r0, r3
 8000b12:	f002 fa59 	bl	8002fc8 <LL_Init1msTick>
  /* Update CMSIS variable (which can be updated also through SystemCoreClockUpdate function) */
  LL_SetSystemCoreClock(48000000);
 8000b16:	4b03      	ldr	r3, [pc, #12]	@ (8000b24 <SystemClock_Config+0x58>)
 8000b18:	0018      	movs	r0, r3
 8000b1a:	f002 fa65 	bl	8002fe8 <LL_SetSystemCoreClock>
}
 8000b1e:	46c0      	nop			@ (mov r8, r8)
 8000b20:	46bd      	mov	sp, r7
 8000b22:	bd80      	pop	{r7, pc}
 8000b24:	02dc6c00 	.word	0x02dc6c00

08000b28 <__NVIC_EnableIRQ>:
{
 8000b28:	b580      	push	{r7, lr}
 8000b2a:	b082      	sub	sp, #8
 8000b2c:	af00      	add	r7, sp, #0
 8000b2e:	0002      	movs	r2, r0
 8000b30:	1dfb      	adds	r3, r7, #7
 8000b32:	701a      	strb	r2, [r3, #0]
  if ((int32_t)(IRQn) >= 0)
 8000b34:	1dfb      	adds	r3, r7, #7
 8000b36:	781b      	ldrb	r3, [r3, #0]
 8000b38:	2b7f      	cmp	r3, #127	@ 0x7f
 8000b3a:	d809      	bhi.n	8000b50 <__NVIC_EnableIRQ+0x28>
    NVIC->ISER[0U] = (uint32_t)(1UL << (((uint32_t)IRQn) & 0x1FUL));
 8000b3c:	1dfb      	adds	r3, r7, #7
 8000b3e:	781b      	ldrb	r3, [r3, #0]
 8000b40:	001a      	movs	r2, r3
 8000b42:	231f      	movs	r3, #31
 8000b44:	401a      	ands	r2, r3
 8000b46:	4b04      	ldr	r3, [pc, #16]	@ (8000b58 <__NVIC_EnableIRQ+0x30>)
 8000b48:	2101      	movs	r1, #1
 8000b4a:	4091      	lsls	r1, r2
 8000b4c:	000a      	movs	r2, r1
 8000b4e:	601a      	str	r2, [r3, #0]
}
 8000b50:	46c0      	nop			@ (mov r8, r8)
 8000b52:	46bd      	mov	sp, r7
 8000b54:	b002      	add	sp, #8
 8000b56:	bd80      	pop	{r7, pc}
 8000b58:	e000e100 	.word	0xe000e100

08000b5c <__NVIC_SetPriority>:
{
 8000b5c:	b590      	push	{r4, r7, lr}
 8000b5e:	b083      	sub	sp, #12
 8000b60:	af00      	add	r7, sp, #0
 8000b62:	0002      	movs	r2, r0
 8000b64:	6039      	str	r1, [r7, #0]
 8000b66:	1dfb      	adds	r3, r7, #7
 8000b68:	701a      	strb	r2, [r3, #0]
  if ((int32_t)(IRQn) >= 0)
 8000b6a:	1dfb      	adds	r3, r7, #7
 8000b6c:	781b      	ldrb	r3, [r3, #0]
 8000b6e:	2b7f      	cmp	r3, #127	@ 0x7f
 8000b70:	d828      	bhi.n	8000bc4 <__NVIC_SetPriority+0x68>
    NVIC->IP[_IP_IDX(IRQn)]  = ((uint32_t)(NVIC->IP[_IP_IDX(IRQn)]  & ~(0xFFUL << _BIT_SHIFT(IRQn))) |
 8000b72:	4a2f      	ldr	r2, [pc, #188]	@ (8000c30 <__NVIC_SetPriority+0xd4>)
 8000b74:	1dfb      	adds	r3, r7, #7
 8000b76:	781b      	ldrb	r3, [r3, #0]
 8000b78:	b25b      	sxtb	r3, r3
 8000b7a:	089b      	lsrs	r3, r3, #2
 8000b7c:	33c0      	adds	r3, #192	@ 0xc0
 8000b7e:	009b      	lsls	r3, r3, #2
 8000b80:	589b      	ldr	r3, [r3, r2]
 8000b82:	1dfa      	adds	r2, r7, #7
 8000b84:	7812      	ldrb	r2, [r2, #0]
 8000b86:	0011      	movs	r1, r2
 8000b88:	2203      	movs	r2, #3
 8000b8a:	400a      	ands	r2, r1
 8000b8c:	00d2      	lsls	r2, r2, #3
 8000b8e:	21ff      	movs	r1, #255	@ 0xff
 8000b90:	4091      	lsls	r1, r2
 8000b92:	000a      	movs	r2, r1
 8000b94:	43d2      	mvns	r2, r2
 8000b96:	401a      	ands	r2, r3
 8000b98:	0011      	movs	r1, r2
       (((priority << (8U - __NVIC_PRIO_BITS)) & (uint32_t)0xFFUL) << _BIT_SHIFT(IRQn)));
 8000b9a:	683b      	ldr	r3, [r7, #0]
 8000b9c:	019b      	lsls	r3, r3, #6
 8000b9e:	22ff      	movs	r2, #255	@ 0xff
 8000ba0:	401a      	ands	r2, r3
 8000ba2:	1dfb      	adds	r3, r7, #7
 8000ba4:	781b      	ldrb	r3, [r3, #0]
 8000ba6:	0018      	movs	r0, r3
 8000ba8:	2303      	movs	r3, #3
 8000baa:	4003      	ands	r3, r0
 8000bac:	00db      	lsls	r3, r3, #3
 8000bae:	409a      	lsls	r2, r3
    NVIC->IP[_IP_IDX(IRQn)]  = ((uint32_t)(NVIC->IP[_IP_IDX(IRQn)]  & ~(0xFFUL << _BIT_SHIFT(IRQn))) |
 8000bb0:	481f      	ldr	r0, [pc, #124]	@ (8000c30 <__NVIC_SetPriority+0xd4>)
 8000bb2:	1dfb      	adds	r3, r7, #7
 8000bb4:	781b      	ldrb	r3, [r3, #0]
 8000bb6:	b25b      	sxtb	r3, r3
 8000bb8:	089b      	lsrs	r3, r3, #2
 8000bba:	430a      	orrs	r2, r1
 8000bbc:	33c0      	adds	r3, #192	@ 0xc0
 8000bbe:	009b      	lsls	r3, r3, #2
 8000bc0:	501a      	str	r2, [r3, r0]
}
 8000bc2:	e031      	b.n	8000c28 <__NVIC_SetPriority+0xcc>
    SCB->SHP[_SHP_IDX(IRQn)] = ((uint32_t)(SCB->SHP[_SHP_IDX(IRQn)] & ~(0xFFUL << _BIT_SHIFT(IRQn))) |
 8000bc4:	4a1b      	ldr	r2, [pc, #108]	@ (8000c34 <__NVIC_SetPriority+0xd8>)
 8000bc6:	1dfb      	adds	r3, r7, #7
 8000bc8:	781b      	ldrb	r3, [r3, #0]
 8000bca:	0019      	movs	r1, r3
 8000bcc:	230f      	movs	r3, #15
 8000bce:	400b      	ands	r3, r1
 8000bd0:	3b08      	subs	r3, #8
 8000bd2:	089b      	lsrs	r3, r3, #2
 8000bd4:	3306      	adds	r3, #6
 8000bd6:	009b      	lsls	r3, r3, #2
 8000bd8:	18d3      	adds	r3, r2, r3
 8000bda:	3304      	adds	r3, #4
 8000bdc:	681b      	ldr	r3, [r3, #0]
 8000bde:	1dfa      	adds	r2, r7, #7
 8000be0:	7812      	ldrb	r2, [r2, #0]
 8000be2:	0011      	movs	r1, r2
 8000be4:	2203      	movs	r2, #3
 8000be6:	400a      	ands	r2, r1
 8000be8:	00d2      	lsls	r2, r2, #3
 8000bea:	21ff      	movs	r1, #255	@ 0xff
 8000bec:	4091      	lsls	r1, r2
 8000bee:	000a      	movs	r2, r1
 8000bf0:	43d2      	mvns	r2, r2
 8000bf2:	401a      	ands	r2, r3
 8000bf4:	0011      	movs	r1, r2
       (((priority << (8U - __NVIC_PRIO_BITS)) & (uint32_t)0xFFUL) << _BIT_SHIFT(IRQn)));
 8000bf6:	683b      	ldr	r3, [r7, #0]
 8000bf8:	019b      	lsls	r3, r3, #6
 8000bfa:	22ff      	movs	r2, #255	@ 0xff
 8000bfc:	401a      	ands	r2, r3
 8000bfe:	1dfb      	adds	r3, r7, #7
 8000c00:	781b      	ldrb	r3, [r3, #0]
 8000c02:	0018      	movs	r0, r3
 8000c04:	2303      	movs	r3, #3
 8000c06:	4003      	ands	r3, r0
 8000c08:	00db      	lsls	r3, r3, #3
 8000c0a:	409a      	lsls	r2, r3
    SCB->SHP[_SHP_IDX(IRQn)] = ((uint32_t)(SCB->SHP[_SHP_IDX(IRQn)] & ~(0xFFUL << _BIT_SHIFT(IRQn))) |
 8000c0c:	4809      	ldr	r0, [pc, #36]	@ (8000c34 <__NVIC_SetPriority+0xd8>)
 8000c0e:	1dfb      	adds	r3, r7, #7
 8000c10:	781b      	ldrb	r3, [r3, #0]
 8000c12:	001c      	movs	r4, r3
 8000c14:	230f      	movs	r3, #15
 8000c16:	4023      	ands	r3, r4
 8000c18:	3b08      	subs	r3, #8
 8000c1a:	089b      	lsrs	r3, r3, #2
 8000c1c:	430a      	orrs	r2, r1
 8000c1e:	3306      	adds	r3, #6
 8000c20:	009b      	lsls	r3, r3, #2
 8000c22:	18c3      	adds	r3, r0, r3
 8000c24:	3304      	adds	r3, #4
 8000c26:	601a      	str	r2, [r3, #0]
}
 8000c28:	46c0      	nop			@ (mov r8, r8)
 8000c2a:	46bd      	mov	sp, r7
 8000c2c:	b003      	add	sp, #12
 8000c2e:	bd90      	pop	{r4, r7, pc}
 8000c30:	e000e100 	.word	0xe000e100
 8000c34:	e000ed00 	.word	0xe000ed00

08000c38 <LL_RCC_SetI2SClockSource>:
  *         @arg @ref LL_RCC_I2S1_CLKSOURCE_PIN
  *         @arg @ref LL_RCC_I2S1_CLKSOURCE_HSIKER
  * @retval None
  */
__STATIC_INLINE void LL_RCC_SetI2SClockSource(uint32_t I2SxSource)
{
 8000c38:	b580      	push	{r7, lr}
 8000c3a:	b082      	sub	sp, #8
 8000c3c:	af00      	add	r7, sp, #0
 8000c3e:	6078      	str	r0, [r7, #4]
  MODIFY_REG(RCC->CCIPR, RCC_CCIPR_I2S1SEL, I2SxSource);
 8000c40:	4b06      	ldr	r3, [pc, #24]	@ (8000c5c <LL_RCC_SetI2SClockSource+0x24>)
 8000c42:	6d5b      	ldr	r3, [r3, #84]	@ 0x54
 8000c44:	4a06      	ldr	r2, [pc, #24]	@ (8000c60 <LL_RCC_SetI2SClockSource+0x28>)
 8000c46:	4013      	ands	r3, r2
 8000c48:	0019      	movs	r1, r3
 8000c4a:	4b04      	ldr	r3, [pc, #16]	@ (8000c5c <LL_RCC_SetI2SClockSource+0x24>)
 8000c4c:	687a      	ldr	r2, [r7, #4]
 8000c4e:	430a      	orrs	r2, r1
 8000c50:	655a      	str	r2, [r3, #84]	@ 0x54
}
 8000c52:	46c0      	nop			@ (mov r8, r8)
 8000c54:	46bd      	mov	sp, r7
 8000c56:	b002      	add	sp, #8
 8000c58:	bd80      	pop	{r7, pc}
 8000c5a:	46c0      	nop			@ (mov r8, r8)
 8000c5c:	40021000 	.word	0x40021000
 8000c60:	ffff3fff 	.word	0xffff3fff

08000c64 <LL_APB1_GRP2_EnableClock>:
{
 8000c64:	b580      	push	{r7, lr}
 8000c66:	b084      	sub	sp, #16
 8000c68:	af00      	add	r7, sp, #0
 8000c6a:	6078      	str	r0, [r7, #4]
  SET_BIT(RCC->APBENR2, Periphs);
 8000c6c:	4b07      	ldr	r3, [pc, #28]	@ (8000c8c <LL_APB1_GRP2_EnableClock+0x28>)
 8000c6e:	6c19      	ldr	r1, [r3, #64]	@ 0x40
 8000c70:	4b06      	ldr	r3, [pc, #24]	@ (8000c8c <LL_APB1_GRP2_EnableClock+0x28>)
 8000c72:	687a      	ldr	r2, [r7, #4]
 8000c74:	430a      	orrs	r2, r1
 8000c76:	641a      	str	r2, [r3, #64]	@ 0x40
  tmpreg = READ_BIT(RCC->APBENR2, Periphs);
 8000c78:	4b04      	ldr	r3, [pc, #16]	@ (8000c8c <LL_APB1_GRP2_EnableClock+0x28>)
 8000c7a:	6c1b      	ldr	r3, [r3, #64]	@ 0x40
 8000c7c:	687a      	ldr	r2, [r7, #4]
 8000c7e:	4013      	ands	r3, r2
 8000c80:	60fb      	str	r3, [r7, #12]
  (void)tmpreg;
 8000c82:	68fb      	ldr	r3, [r7, #12]
}
 8000c84:	46c0      	nop			@ (mov r8, r8)
 8000c86:	46bd      	mov	sp, r7
 8000c88:	b004      	add	sp, #16
 8000c8a:	bd80      	pop	{r7, pc}
 8000c8c:	40021000 	.word	0x40021000

08000c90 <LL_IOP_GRP1_EnableClock>:
{
 8000c90:	b580      	push	{r7, lr}
 8000c92:	b084      	sub	sp, #16
 8000c94:	af00      	add	r7, sp, #0
 8000c96:	6078      	str	r0, [r7, #4]
  SET_BIT(RCC->IOPENR, Periphs);
 8000c98:	4b07      	ldr	r3, [pc, #28]	@ (8000cb8 <LL_IOP_GRP1_EnableClock+0x28>)
 8000c9a:	6b59      	ldr	r1, [r3, #52]	@ 0x34
 8000c9c:	4b06      	ldr	r3, [pc, #24]	@ (8000cb8 <LL_IOP_GRP1_EnableClock+0x28>)
 8000c9e:	687a      	ldr	r2, [r7, #4]
 8000ca0:	430a      	orrs	r2, r1
 8000ca2:	635a      	str	r2, [r3, #52]	@ 0x34
  tmpreg = READ_BIT(RCC->IOPENR, Periphs);
 8000ca4:	4b04      	ldr	r3, [pc, #16]	@ (8000cb8 <LL_IOP_GRP1_EnableClock+0x28>)
 8000ca6:	6b5b      	ldr	r3, [r3, #52]	@ 0x34
 8000ca8:	687a      	ldr	r2, [r7, #4]
 8000caa:	4013      	ands	r3, r2
 8000cac:	60fb      	str	r3, [r7, #12]
  (void)tmpreg;
 8000cae:	68fb      	ldr	r3, [r7, #12]
}
 8000cb0:	46c0      	nop			@ (mov r8, r8)
 8000cb2:	46bd      	mov	sp, r7
 8000cb4:	b004      	add	sp, #16
 8000cb6:	bd80      	pop	{r7, pc}
 8000cb8:	40021000 	.word	0x40021000

08000cbc <LL_SPI_SetStandard>:
  *         @arg @ref LL_SPI_PROTOCOL_MOTOROLA
  *         @arg @ref LL_SPI_PROTOCOL_TI
  * @retval None
  */
__STATIC_INLINE void LL_SPI_SetStandard(SPI_TypeDef *SPIx, uint32_t Standard)
{
 8000cbc:	b580      	push	{r7, lr}
 8000cbe:	b082      	sub	sp, #8
 8000cc0:	af00      	add	r7, sp, #0
 8000cc2:	6078      	str	r0, [r7, #4]
 8000cc4:	6039      	str	r1, [r7, #0]
  MODIFY_REG(SPIx->CR2, SPI_CR2_FRF, Standard);
 8000cc6:	687b      	ldr	r3, [r7, #4]
 8000cc8:	685b      	ldr	r3, [r3, #4]
 8000cca:	2210      	movs	r2, #16
 8000ccc:	4393      	bics	r3, r2
 8000cce:	001a      	movs	r2, r3
 8000cd0:	683b      	ldr	r3, [r7, #0]
 8000cd2:	431a      	orrs	r2, r3
 8000cd4:	687b      	ldr	r3, [r7, #4]
 8000cd6:	605a      	str	r2, [r3, #4]
}
 8000cd8:	46c0      	nop			@ (mov r8, r8)
 8000cda:	46bd      	mov	sp, r7
 8000cdc:	b002      	add	sp, #8
 8000cde:	bd80      	pop	{r7, pc}

08000ce0 <LL_SPI_SetRxFIFOThreshold>:
  *         @arg @ref LL_SPI_RX_FIFO_TH_HALF
  *         @arg @ref LL_SPI_RX_FIFO_TH_QUARTER
  * @retval None
  */
__STATIC_INLINE void LL_SPI_SetRxFIFOThreshold(SPI_TypeDef *SPIx, uint32_t Threshold)
{
 8000ce0:	b580      	push	{r7, lr}
 8000ce2:	b082      	sub	sp, #8
 8000ce4:	af00      	add	r7, sp, #0
 8000ce6:	6078      	str	r0, [r7, #4]
 8000ce8:	6039      	str	r1, [r7, #0]
  MODIFY_REG(SPIx->CR2, SPI_CR2_FRXTH, Threshold);
 8000cea:	687b      	ldr	r3, [r7, #4]
 8000cec:	685b      	ldr	r3, [r3, #4]
 8000cee:	4a05      	ldr	r2, [pc, #20]	@ (8000d04 <LL_SPI_SetRxFIFOThreshold+0x24>)
 8000cf0:	401a      	ands	r2, r3
 8000cf2:	683b      	ldr	r3, [r7, #0]
 8000cf4:	431a      	orrs	r2, r3
 8000cf6:	687b      	ldr	r3, [r7, #4]
 8000cf8:	605a      	str	r2, [r3, #4]
}
 8000cfa:	46c0      	nop			@ (mov r8, r8)
 8000cfc:	46bd      	mov	sp, r7
 8000cfe:	b002      	add	sp, #8
 8000d00:	bd80      	pop	{r7, pc}
 8000d02:	46c0      	nop			@ (mov r8, r8)
 8000d04:	ffffefff 	.word	0xffffefff

08000d08 <LL_SPI_DisableNSSPulseMgt>:
  * @rmtoll CR2          NSSP          LL_SPI_DisableNSSPulseMgt
  * @param  SPIx SPI Instance
  * @retval None
  */
__STATIC_INLINE void LL_SPI_DisableNSSPulseMgt(SPI_TypeDef *SPIx)
{
 8000d08:	b580      	push	{r7, lr}
 8000d0a:	b082      	sub	sp, #8
 8000d0c:	af00      	add	r7, sp, #0
 8000d0e:	6078      	str	r0, [r7, #4]
  CLEAR_BIT(SPIx->CR2, SPI_CR2_NSSP);
 8000d10:	687b      	ldr	r3, [r7, #4]
 8000d12:	685b      	ldr	r3, [r3, #4]
 8000d14:	2208      	movs	r2, #8
 8000d16:	4393      	bics	r3, r2
 8000d18:	001a      	movs	r2, r3
 8000d1a:	687b      	ldr	r3, [r7, #4]
 8000d1c:	605a      	str	r2, [r3, #4]
}
 8000d1e:	46c0      	nop			@ (mov r8, r8)
 8000d20:	46bd      	mov	sp, r7
 8000d22:	b002      	add	sp, #8
 8000d24:	bd80      	pop	{r7, pc}
	...

08000d28 <MX_SPI1_Init>:

/* USER CODE END 0 */

/* SPI1 init function */
void MX_SPI1_Init(void)
{
 8000d28:	b590      	push	{r4, r7, lr}
 8000d2a:	b091      	sub	sp, #68	@ 0x44
 8000d2c:	af00      	add	r7, sp, #0

  /* USER CODE BEGIN SPI1_Init 0 */

  /* USER CODE END SPI1_Init 0 */

  LL_SPI_InitTypeDef SPI_InitStruct = {0};
 8000d2e:	2418      	movs	r4, #24
 8000d30:	193b      	adds	r3, r7, r4
 8000d32:	0018      	movs	r0, r3
 8000d34:	2328      	movs	r3, #40	@ 0x28
 8000d36:	001a      	movs	r2, r3
 8000d38:	2100      	movs	r1, #0
 8000d3a:	f002 f963 	bl	8003004 <memset>

  LL_GPIO_InitTypeDef GPIO_InitStruct = {0};
 8000d3e:	003b      	movs	r3, r7
 8000d40:	0018      	movs	r0, r3
 8000d42:	2318      	movs	r3, #24
 8000d44:	001a      	movs	r2, r3
 8000d46:	2100      	movs	r1, #0
 8000d48:	f002 f95c 	bl	8003004 <memset>

  LL_RCC_SetI2SClockSource(LL_RCC_I2S1_CLKSOURCE_SYSCLK);
 8000d4c:	2000      	movs	r0, #0
 8000d4e:	f7ff ff73 	bl	8000c38 <LL_RCC_SetI2SClockSource>

  /* Peripheral clock enable */
  LL_APB2_GRP1_EnableClock(LL_APB2_GRP1_PERIPH_SPI1);
 8000d52:	2380      	movs	r3, #128	@ 0x80
 8000d54:	015b      	lsls	r3, r3, #5
 8000d56:	0018      	movs	r0, r3
 8000d58:	f7ff ff84 	bl	8000c64 <LL_APB1_GRP2_EnableClock>

  LL_IOP_GRP1_EnableClock(LL_IOP_GRP1_PERIPH_GPIOA);
 8000d5c:	2001      	movs	r0, #1
 8000d5e:	f7ff ff97 	bl	8000c90 <LL_IOP_GRP1_EnableClock>
  /**SPI1 GPIO Configuration
  PA1   ------> SPI1_SCK
  PA2   ------> SPI1_MOSI
  PA6   ------> SPI1_MISO
  */
  GPIO_InitStruct.Pin = LL_GPIO_PIN_1;
 8000d62:	003b      	movs	r3, r7
 8000d64:	2202      	movs	r2, #2
 8000d66:	601a      	str	r2, [r3, #0]
  GPIO_InitStruct.Mode = LL_GPIO_MODE_ALTERNATE;
 8000d68:	003b      	movs	r3, r7
 8000d6a:	2202      	movs	r2, #2
 8000d6c:	605a      	str	r2, [r3, #4]
  GPIO_InitStruct.Speed = LL_GPIO_SPEED_FREQ_VERY_HIGH;
 8000d6e:	003b      	movs	r3, r7
 8000d70:	2203      	movs	r2, #3
 8000d72:	609a      	str	r2, [r3, #8]
  GPIO_InitStruct.OutputType = LL_GPIO_OUTPUT_PUSHPULL;
 8000d74:	003b      	movs	r3, r7
 8000d76:	2200      	movs	r2, #0
 8000d78:	60da      	str	r2, [r3, #12]
  GPIO_InitStruct.Pull = LL_GPIO_PULL_NO;
 8000d7a:	003b      	movs	r3, r7
 8000d7c:	2200      	movs	r2, #0
 8000d7e:	611a      	str	r2, [r3, #16]
  GPIO_InitStruct.Alternate = LL_GPIO_AF_0;
 8000d80:	003b      	movs	r3, r7
 8000d82:	2200      	movs	r2, #0
 8000d84:	615a      	str	r2, [r3, #20]
  LL_GPIO_Init(GPIOA, &GPIO_InitStruct);
 8000d86:	003a      	movs	r2, r7
 8000d88:	23a0      	movs	r3, #160	@ 0xa0
 8000d8a:	05db      	lsls	r3, r3, #23
 8000d8c:	0011      	movs	r1, r2
 8000d8e:	0018      	movs	r0, r3
 8000d90:	f001 fb60 	bl	8002454 <LL_GPIO_Init>

  GPIO_InitStruct.Pin = LL_GPIO_PIN_2;
 8000d94:	003b      	movs	r3, r7
 8000d96:	2204      	movs	r2, #4
 8000d98:	601a      	str	r2, [r3, #0]
  GPIO_InitStruct.Mode = LL_GPIO_MODE_ALTERNATE;
 8000d9a:	003b      	movs	r3, r7
 8000d9c:	2202      	movs	r2, #2
 8000d9e:	605a      	str	r2, [r3, #4]
  GPIO_InitStruct.Speed = LL_GPIO_SPEED_FREQ_VERY_HIGH;
 8000da0:	003b      	movs	r3, r7
 8000da2:	2203      	movs	r2, #3
 8000da4:	609a      	str	r2, [r3, #8]
  GPIO_InitStruct.OutputType = LL_GPIO_OUTPUT_PUSHPULL;
 8000da6:	003b      	movs	r3, r7
 8000da8:	2200      	movs	r2, #0
 8000daa:	60da      	str	r2, [r3, #12]
  GPIO_InitStruct.Pull = LL_GPIO_PULL_NO;
 8000dac:	003b      	movs	r3, r7
 8000dae:	2200      	movs	r2, #0
 8000db0:	611a      	str	r2, [r3, #16]
  GPIO_InitStruct.Alternate = LL_GPIO_AF_0;
 8000db2:	003b      	movs	r3, r7
 8000db4:	2200      	movs	r2, #0
 8000db6:	615a      	str	r2, [r3, #20]
  LL_GPIO_Init(GPIOA, &GPIO_InitStruct);
 8000db8:	003a      	movs	r2, r7
 8000dba:	23a0      	movs	r3, #160	@ 0xa0
 8000dbc:	05db      	lsls	r3, r3, #23
 8000dbe:	0011      	movs	r1, r2
 8000dc0:	0018      	movs	r0, r3
 8000dc2:	f001 fb47 	bl	8002454 <LL_GPIO_Init>

  GPIO_InitStruct.Pin = LL_GPIO_PIN_6;
 8000dc6:	003b      	movs	r3, r7
 8000dc8:	2240      	movs	r2, #64	@ 0x40
 8000dca:	601a      	str	r2, [r3, #0]
  GPIO_InitStruct.Mode = LL_GPIO_MODE_ALTERNATE;
 8000dcc:	003b      	movs	r3, r7
 8000dce:	2202      	movs	r2, #2
 8000dd0:	605a      	str	r2, [r3, #4]
  GPIO_InitStruct.Speed = LL_GPIO_SPEED_FREQ_VERY_HIGH;
 8000dd2:	003b      	movs	r3, r7
 8000dd4:	2203      	movs	r2, #3
 8000dd6:	609a      	str	r2, [r3, #8]
  GPIO_InitStruct.OutputType = LL_GPIO_OUTPUT_PUSHPULL;
 8000dd8:	003b      	movs	r3, r7
 8000dda:	2200      	movs	r2, #0
 8000ddc:	60da      	str	r2, [r3, #12]
  GPIO_InitStruct.Pull = LL_GPIO_PULL_NO;
 8000dde:	003b      	movs	r3, r7
 8000de0:	2200      	movs	r2, #0
 8000de2:	611a      	str	r2, [r3, #16]
  GPIO_InitStruct.Alternate = LL_GPIO_AF_0;
 8000de4:	003b      	movs	r3, r7
 8000de6:	2200      	movs	r2, #0
 8000de8:	615a      	str	r2, [r3, #20]
  LL_GPIO_Init(GPIOA, &GPIO_InitStruct);
 8000dea:	003a      	movs	r2, r7
 8000dec:	23a0      	movs	r3, #160	@ 0xa0
 8000dee:	05db      	lsls	r3, r3, #23
 8000df0:	0011      	movs	r1, r2
 8000df2:	0018      	movs	r0, r3
 8000df4:	f001 fb2e 	bl	8002454 <LL_GPIO_Init>

  /* SPI1 interrupt Init */
  NVIC_SetPriority(SPI1_IRQn, 1);
 8000df8:	2101      	movs	r1, #1
 8000dfa:	2019      	movs	r0, #25
 8000dfc:	f7ff feae 	bl	8000b5c <__NVIC_SetPriority>
  NVIC_EnableIRQ(SPI1_IRQn);
 8000e00:	2019      	movs	r0, #25
 8000e02:	f7ff fe91 	bl	8000b28 <__NVIC_EnableIRQ>

  /* USER CODE BEGIN SPI1_Init 1 */

  /* USER CODE END SPI1_Init 1 */
  SPI_InitStruct.TransferDirection = LL_SPI_FULL_DUPLEX;
 8000e06:	0021      	movs	r1, r4
 8000e08:	187b      	adds	r3, r7, r1
 8000e0a:	2200      	movs	r2, #0
 8000e0c:	601a      	str	r2, [r3, #0]
  SPI_InitStruct.Mode = LL_SPI_MODE_MASTER;
 8000e0e:	187b      	adds	r3, r7, r1
 8000e10:	2282      	movs	r2, #130	@ 0x82
 8000e12:	0052      	lsls	r2, r2, #1
 8000e14:	605a      	str	r2, [r3, #4]
  SPI_InitStruct.DataWidth = LL_SPI_DATAWIDTH_8BIT;
 8000e16:	187b      	adds	r3, r7, r1
 8000e18:	22e0      	movs	r2, #224	@ 0xe0
 8000e1a:	00d2      	lsls	r2, r2, #3
 8000e1c:	609a      	str	r2, [r3, #8]
  SPI_InitStruct.ClockPolarity = LL_SPI_POLARITY_LOW;
 8000e1e:	187b      	adds	r3, r7, r1
 8000e20:	2200      	movs	r2, #0
 8000e22:	60da      	str	r2, [r3, #12]
  SPI_InitStruct.ClockPhase = LL_SPI_PHASE_1EDGE;
 8000e24:	187b      	adds	r3, r7, r1
 8000e26:	2200      	movs	r2, #0
 8000e28:	611a      	str	r2, [r3, #16]
  SPI_InitStruct.NSS = LL_SPI_NSS_SOFT;
 8000e2a:	187b      	adds	r3, r7, r1
 8000e2c:	2280      	movs	r2, #128	@ 0x80
 8000e2e:	0092      	lsls	r2, r2, #2
 8000e30:	615a      	str	r2, [r3, #20]
  SPI_InitStruct.BaudRate = LL_SPI_BAUDRATEPRESCALER_DIV2;
 8000e32:	187b      	adds	r3, r7, r1
 8000e34:	2200      	movs	r2, #0
 8000e36:	619a      	str	r2, [r3, #24]
  SPI_InitStruct.BitOrder = LL_SPI_MSB_FIRST;
 8000e38:	187b      	adds	r3, r7, r1
 8000e3a:	2200      	movs	r2, #0
 8000e3c:	61da      	str	r2, [r3, #28]
  SPI_InitStruct.CRCCalculation = LL_SPI_CRCCALCULATION_DISABLE;
 8000e3e:	187b      	adds	r3, r7, r1
 8000e40:	2200      	movs	r2, #0
 8000e42:	621a      	str	r2, [r3, #32]
  SPI_InitStruct.CRCPoly = 7;
 8000e44:	187b      	adds	r3, r7, r1
 8000e46:	2207      	movs	r2, #7
 8000e48:	625a      	str	r2, [r3, #36]	@ 0x24
  LL_SPI_Init(SPI1, &SPI_InitStruct);
 8000e4a:	187b      	adds	r3, r7, r1
 8000e4c:	4a0c      	ldr	r2, [pc, #48]	@ (8000e80 <MX_SPI1_Init+0x158>)
 8000e4e:	0019      	movs	r1, r3
 8000e50:	0010      	movs	r0, r2
 8000e52:	f001 fb8d 	bl	8002570 <LL_SPI_Init>
  LL_SPI_SetStandard(SPI1, LL_SPI_PROTOCOL_MOTOROLA);
 8000e56:	4b0a      	ldr	r3, [pc, #40]	@ (8000e80 <MX_SPI1_Init+0x158>)
 8000e58:	2100      	movs	r1, #0
 8000e5a:	0018      	movs	r0, r3
 8000e5c:	f7ff ff2e 	bl	8000cbc <LL_SPI_SetStandard>
  LL_SPI_DisableNSSPulseMgt(SPI1);
 8000e60:	4b07      	ldr	r3, [pc, #28]	@ (8000e80 <MX_SPI1_Init+0x158>)
 8000e62:	0018      	movs	r0, r3
 8000e64:	f7ff ff50 	bl	8000d08 <LL_SPI_DisableNSSPulseMgt>
  /* USER CODE BEGIN SPI1_Init 2 */
  LL_SPI_SetRxFIFOThreshold(SPI1, LL_SPI_RX_FIFO_TH_QUARTER);
 8000e68:	2380      	movs	r3, #128	@ 0x80
 8000e6a:	015b      	lsls	r3, r3, #5
 8000e6c:	4a04      	ldr	r2, [pc, #16]	@ (8000e80 <MX_SPI1_Init+0x158>)
 8000e6e:	0019      	movs	r1, r3
 8000e70:	0010      	movs	r0, r2
 8000e72:	f7ff ff35 	bl	8000ce0 <LL_SPI_SetRxFIFOThreshold>
  /* USER CODE END SPI1_Init 2 */

}
 8000e76:	46c0      	nop			@ (mov r8, r8)
 8000e78:	46bd      	mov	sp, r7
 8000e7a:	b011      	add	sp, #68	@ 0x44
 8000e7c:	bd90      	pop	{r4, r7, pc}
 8000e7e:	46c0      	nop			@ (mov r8, r8)
 8000e80:	40013000 	.word	0x40013000

08000e84 <LL_SPI_IsActiveFlag_RXNE>:
  * @rmtoll SR           RXNE          LL_SPI_IsActiveFlag_RXNE
  * @param  SPIx SPI Instance
  * @retval State of bit (1 or 0).
  */
__STATIC_INLINE uint32_t LL_SPI_IsActiveFlag_RXNE(const SPI_TypeDef *SPIx)
{
 8000e84:	b580      	push	{r7, lr}
 8000e86:	b082      	sub	sp, #8
 8000e88:	af00      	add	r7, sp, #0
 8000e8a:	6078      	str	r0, [r7, #4]
  return ((READ_BIT(SPIx->SR, SPI_SR_RXNE) == (SPI_SR_RXNE)) ? 1UL : 0UL);
 8000e8c:	687b      	ldr	r3, [r7, #4]
 8000e8e:	689b      	ldr	r3, [r3, #8]
 8000e90:	2201      	movs	r2, #1
 8000e92:	4013      	ands	r3, r2
 8000e94:	2b01      	cmp	r3, #1
 8000e96:	d101      	bne.n	8000e9c <LL_SPI_IsActiveFlag_RXNE+0x18>
 8000e98:	2301      	movs	r3, #1
 8000e9a:	e000      	b.n	8000e9e <LL_SPI_IsActiveFlag_RXNE+0x1a>
 8000e9c:	2300      	movs	r3, #0
}
 8000e9e:	0018      	movs	r0, r3
 8000ea0:	46bd      	mov	sp, r7
 8000ea2:	b002      	add	sp, #8
 8000ea4:	bd80      	pop	{r7, pc}

08000ea6 <LL_SPI_IsActiveFlag_TXE>:
  * @rmtoll SR           TXE           LL_SPI_IsActiveFlag_TXE
  * @param  SPIx SPI Instance
  * @retval State of bit (1 or 0).
  */
__STATIC_INLINE uint32_t LL_SPI_IsActiveFlag_TXE(const SPI_TypeDef *SPIx)
{
 8000ea6:	b580      	push	{r7, lr}
 8000ea8:	b082      	sub	sp, #8
 8000eaa:	af00      	add	r7, sp, #0
 8000eac:	6078      	str	r0, [r7, #4]
  return ((READ_BIT(SPIx->SR, SPI_SR_TXE) == (SPI_SR_TXE)) ? 1UL : 0UL);
 8000eae:	687b      	ldr	r3, [r7, #4]
 8000eb0:	689b      	ldr	r3, [r3, #8]
 8000eb2:	2202      	movs	r2, #2
 8000eb4:	4013      	ands	r3, r2
 8000eb6:	2b02      	cmp	r3, #2
 8000eb8:	d101      	bne.n	8000ebe <LL_SPI_IsActiveFlag_TXE+0x18>
 8000eba:	2301      	movs	r3, #1
 8000ebc:	e000      	b.n	8000ec0 <LL_SPI_IsActiveFlag_TXE+0x1a>
 8000ebe:	2300      	movs	r3, #0
}
 8000ec0:	0018      	movs	r0, r3
 8000ec2:	46bd      	mov	sp, r7
 8000ec4:	b002      	add	sp, #8
 8000ec6:	bd80      	pop	{r7, pc}

08000ec8 <LL_SPI_IsActiveFlag_BSY>:
  * @rmtoll SR           BSY           LL_SPI_IsActiveFlag_BSY
  * @param  SPIx SPI Instance
  * @retval State of bit (1 or 0).
  */
__STATIC_INLINE uint32_t LL_SPI_IsActiveFlag_BSY(const SPI_TypeDef *SPIx)
{
 8000ec8:	b580      	push	{r7, lr}
 8000eca:	b082      	sub	sp, #8
 8000ecc:	af00      	add	r7, sp, #0
 8000ece:	6078      	str	r0, [r7, #4]
  return ((READ_BIT(SPIx->SR, SPI_SR_BSY) == (SPI_SR_BSY)) ? 1UL : 0UL);
 8000ed0:	687b      	ldr	r3, [r7, #4]
 8000ed2:	689b      	ldr	r3, [r3, #8]
 8000ed4:	2280      	movs	r2, #128	@ 0x80
 8000ed6:	4013      	ands	r3, r2
 8000ed8:	2b80      	cmp	r3, #128	@ 0x80
 8000eda:	d101      	bne.n	8000ee0 <LL_SPI_IsActiveFlag_BSY+0x18>
 8000edc:	2301      	movs	r3, #1
 8000ede:	e000      	b.n	8000ee2 <LL_SPI_IsActiveFlag_BSY+0x1a>
 8000ee0:	2300      	movs	r3, #0
}
 8000ee2:	0018      	movs	r0, r3
 8000ee4:	46bd      	mov	sp, r7
 8000ee6:	b002      	add	sp, #8
 8000ee8:	bd80      	pop	{r7, pc}

08000eea <LL_SPI_ReceiveData8>:
  * @rmtoll DR           DR            LL_SPI_ReceiveData8
  * @param  SPIx SPI Instance
  * @retval RxData Value between Min_Data=0x00 and Max_Data=0xFF
  */
__STATIC_INLINE uint8_t LL_SPI_ReceiveData8(SPI_TypeDef *SPIx)
{
 8000eea:	b580      	push	{r7, lr}
 8000eec:	b082      	sub	sp, #8
 8000eee:	af00      	add	r7, sp, #0
 8000ef0:	6078      	str	r0, [r7, #4]
  return (*((__IO uint8_t *)&SPIx->DR));
 8000ef2:	687b      	ldr	r3, [r7, #4]
 8000ef4:	330c      	adds	r3, #12
 8000ef6:	781b      	ldrb	r3, [r3, #0]
 8000ef8:	b2db      	uxtb	r3, r3
}
 8000efa:	0018      	movs	r0, r3
 8000efc:	46bd      	mov	sp, r7
 8000efe:	b002      	add	sp, #8
 8000f00:	bd80      	pop	{r7, pc}

08000f02 <LL_SPI_TransmitData8>:
  * @param  SPIx SPI Instance
  * @param  TxData Value between Min_Data=0x00 and Max_Data=0xFF
  * @retval None
  */
__STATIC_INLINE void LL_SPI_TransmitData8(SPI_TypeDef *SPIx, uint8_t TxData)
{
 8000f02:	b580      	push	{r7, lr}
 8000f04:	b084      	sub	sp, #16
 8000f06:	af00      	add	r7, sp, #0
 8000f08:	6078      	str	r0, [r7, #4]
 8000f0a:	000a      	movs	r2, r1
 8000f0c:	1cfb      	adds	r3, r7, #3
 8000f0e:	701a      	strb	r2, [r3, #0]
#if defined (__GNUC__)
  __IO uint8_t *spidr = ((__IO uint8_t *)&SPIx->DR);
 8000f10:	687b      	ldr	r3, [r7, #4]
 8000f12:	330c      	adds	r3, #12
 8000f14:	60fb      	str	r3, [r7, #12]
  *spidr = TxData;
 8000f16:	68fb      	ldr	r3, [r7, #12]
 8000f18:	1cfa      	adds	r2, r7, #3
 8000f1a:	7812      	ldrb	r2, [r2, #0]
 8000f1c:	701a      	strb	r2, [r3, #0]
#else
  *((__IO uint8_t *)&SPIx->DR) = TxData;
#endif /* __GNUC__ */
}
 8000f1e:	46c0      	nop			@ (mov r8, r8)
 8000f20:	46bd      	mov	sp, r7
 8000f22:	b004      	add	sp, #16
 8000f24:	bd80      	pop	{r7, pc}

08000f26 <SPI_Transmit_Data8>:
//Warstwa sprzetowa
//SPI musi byc wlaczone

//metoda wysyla bajty nic nie zwraca
void SPI_Transmit_Data8(SPI_TypeDef *SPIx,uint8_t *data,uint16_t size)
{
 8000f26:	b580      	push	{r7, lr}
 8000f28:	b086      	sub	sp, #24
 8000f2a:	af00      	add	r7, sp, #0
 8000f2c:	60f8      	str	r0, [r7, #12]
 8000f2e:	60b9      	str	r1, [r7, #8]
 8000f30:	1dbb      	adds	r3, r7, #6
 8000f32:	801a      	strh	r2, [r3, #0]
	//wyslij dana ilosc bajtow
	for(uint16_t i = 0; i < size ; i++)
 8000f34:	2316      	movs	r3, #22
 8000f36:	18fb      	adds	r3, r7, r3
 8000f38:	2200      	movs	r2, #0
 8000f3a:	801a      	strh	r2, [r3, #0]
 8000f3c:	e022      	b.n	8000f84 <SPI_Transmit_Data8+0x5e>
	{

	while(!LL_SPI_IsActiveFlag_TXE(SPIx));
 8000f3e:	46c0      	nop			@ (mov r8, r8)
 8000f40:	68fb      	ldr	r3, [r7, #12]
 8000f42:	0018      	movs	r0, r3
 8000f44:	f7ff ffaf 	bl	8000ea6 <LL_SPI_IsActiveFlag_TXE>
 8000f48:	1e03      	subs	r3, r0, #0
 8000f4a:	d0f9      	beq.n	8000f40 <SPI_Transmit_Data8+0x1a>
	LL_SPI_TransmitData8(SPIx, data[i]);
 8000f4c:	2316      	movs	r3, #22
 8000f4e:	18fb      	adds	r3, r7, r3
 8000f50:	881b      	ldrh	r3, [r3, #0]
 8000f52:	68ba      	ldr	r2, [r7, #8]
 8000f54:	18d3      	adds	r3, r2, r3
 8000f56:	781a      	ldrb	r2, [r3, #0]
 8000f58:	68fb      	ldr	r3, [r7, #12]
 8000f5a:	0011      	movs	r1, r2
 8000f5c:	0018      	movs	r0, r3
 8000f5e:	f7ff ffd0 	bl	8000f02 <LL_SPI_TransmitData8>

	while(!LL_SPI_IsActiveFlag_RXNE(SPIx));
 8000f62:	46c0      	nop			@ (mov r8, r8)
 8000f64:	68fb      	ldr	r3, [r7, #12]
 8000f66:	0018      	movs	r0, r3
 8000f68:	f7ff ff8c 	bl	8000e84 <LL_SPI_IsActiveFlag_RXNE>
 8000f6c:	1e03      	subs	r3, r0, #0
 8000f6e:	d0f9      	beq.n	8000f64 <SPI_Transmit_Data8+0x3e>
	(void)LL_SPI_ReceiveData8(SPIx);
 8000f70:	68fb      	ldr	r3, [r7, #12]
 8000f72:	0018      	movs	r0, r3
 8000f74:	f7ff ffb9 	bl	8000eea <LL_SPI_ReceiveData8>
	for(uint16_t i = 0; i < size ; i++)
 8000f78:	2116      	movs	r1, #22
 8000f7a:	187b      	adds	r3, r7, r1
 8000f7c:	881a      	ldrh	r2, [r3, #0]
 8000f7e:	187b      	adds	r3, r7, r1
 8000f80:	3201      	adds	r2, #1
 8000f82:	801a      	strh	r2, [r3, #0]
 8000f84:	2316      	movs	r3, #22
 8000f86:	18fa      	adds	r2, r7, r3
 8000f88:	1dbb      	adds	r3, r7, #6
 8000f8a:	8812      	ldrh	r2, [r2, #0]
 8000f8c:	881b      	ldrh	r3, [r3, #0]
 8000f8e:	429a      	cmp	r2, r3
 8000f90:	d3d5      	bcc.n	8000f3e <SPI_Transmit_Data8+0x18>
	}

	//zaczekaj na koniec pracy
	while(LL_SPI_IsActiveFlag_BSY(SPIx));
 8000f92:	46c0      	nop			@ (mov r8, r8)
 8000f94:	68fb      	ldr	r3, [r7, #12]
 8000f96:	0018      	movs	r0, r3
 8000f98:	f7ff ff96 	bl	8000ec8 <LL_SPI_IsActiveFlag_BSY>
 8000f9c:	1e03      	subs	r3, r0, #0
 8000f9e:	d1f9      	bne.n	8000f94 <SPI_Transmit_Data8+0x6e>
}
 8000fa0:	46c0      	nop			@ (mov r8, r8)
 8000fa2:	46c0      	nop			@ (mov r8, r8)
 8000fa4:	46bd      	mov	sp, r7
 8000fa6:	b006      	add	sp, #24
 8000fa8:	bd80      	pop	{r7, pc}

08000faa <LL_SPI_Enable>:
{
 8000faa:	b580      	push	{r7, lr}
 8000fac:	b082      	sub	sp, #8
 8000fae:	af00      	add	r7, sp, #0
 8000fb0:	6078      	str	r0, [r7, #4]
  SET_BIT(SPIx->CR1, SPI_CR1_SPE);
 8000fb2:	687b      	ldr	r3, [r7, #4]
 8000fb4:	681b      	ldr	r3, [r3, #0]
 8000fb6:	2240      	movs	r2, #64	@ 0x40
 8000fb8:	431a      	orrs	r2, r3
 8000fba:	687b      	ldr	r3, [r7, #4]
 8000fbc:	601a      	str	r2, [r3, #0]
}
 8000fbe:	46c0      	nop			@ (mov r8, r8)
 8000fc0:	46bd      	mov	sp, r7
 8000fc2:	b002      	add	sp, #8
 8000fc4:	bd80      	pop	{r7, pc}

08000fc6 <LL_SPI_Disable>:
{
 8000fc6:	b580      	push	{r7, lr}
 8000fc8:	b082      	sub	sp, #8
 8000fca:	af00      	add	r7, sp, #0
 8000fcc:	6078      	str	r0, [r7, #4]
  CLEAR_BIT(SPIx->CR1, SPI_CR1_SPE);
 8000fce:	687b      	ldr	r3, [r7, #4]
 8000fd0:	681b      	ldr	r3, [r3, #0]
 8000fd2:	2240      	movs	r2, #64	@ 0x40
 8000fd4:	4393      	bics	r3, r2
 8000fd6:	001a      	movs	r2, r3
 8000fd8:	687b      	ldr	r3, [r7, #4]
 8000fda:	601a      	str	r2, [r3, #0]
}
 8000fdc:	46c0      	nop			@ (mov r8, r8)
 8000fde:	46bd      	mov	sp, r7
 8000fe0:	b002      	add	sp, #8
 8000fe2:	bd80      	pop	{r7, pc}

08000fe4 <LL_SPI_IsActiveFlag_BSY>:
{
 8000fe4:	b580      	push	{r7, lr}
 8000fe6:	b082      	sub	sp, #8
 8000fe8:	af00      	add	r7, sp, #0
 8000fea:	6078      	str	r0, [r7, #4]
  return ((READ_BIT(SPIx->SR, SPI_SR_BSY) == (SPI_SR_BSY)) ? 1UL : 0UL);
 8000fec:	687b      	ldr	r3, [r7, #4]
 8000fee:	689b      	ldr	r3, [r3, #8]
 8000ff0:	2280      	movs	r2, #128	@ 0x80
 8000ff2:	4013      	ands	r3, r2
 8000ff4:	2b80      	cmp	r3, #128	@ 0x80
 8000ff6:	d101      	bne.n	8000ffc <LL_SPI_IsActiveFlag_BSY+0x18>
 8000ff8:	2301      	movs	r3, #1
 8000ffa:	e000      	b.n	8000ffe <LL_SPI_IsActiveFlag_BSY+0x1a>
 8000ffc:	2300      	movs	r3, #0
}
 8000ffe:	0018      	movs	r0, r3
 8001000:	46bd      	mov	sp, r7
 8001002:	b002      	add	sp, #8
 8001004:	bd80      	pop	{r7, pc}

08001006 <LL_SPI_GetRxFIFOLevel>:
{
 8001006:	b580      	push	{r7, lr}
 8001008:	b082      	sub	sp, #8
 800100a:	af00      	add	r7, sp, #0
 800100c:	6078      	str	r0, [r7, #4]
  return (uint32_t)(READ_BIT(SPIx->SR, SPI_SR_FRLVL));
 800100e:	687b      	ldr	r3, [r7, #4]
 8001010:	689a      	ldr	r2, [r3, #8]
 8001012:	23c0      	movs	r3, #192	@ 0xc0
 8001014:	00db      	lsls	r3, r3, #3
 8001016:	4013      	ands	r3, r2
}
 8001018:	0018      	movs	r0, r3
 800101a:	46bd      	mov	sp, r7
 800101c:	b002      	add	sp, #8
 800101e:	bd80      	pop	{r7, pc}

08001020 <LL_SPI_GetTxFIFOLevel>:
{
 8001020:	b580      	push	{r7, lr}
 8001022:	b082      	sub	sp, #8
 8001024:	af00      	add	r7, sp, #0
 8001026:	6078      	str	r0, [r7, #4]
  return (uint32_t)(READ_BIT(SPIx->SR, SPI_SR_FTLVL));
 8001028:	687b      	ldr	r3, [r7, #4]
 800102a:	689a      	ldr	r2, [r3, #8]
 800102c:	23c0      	movs	r3, #192	@ 0xc0
 800102e:	015b      	lsls	r3, r3, #5
 8001030:	4013      	ands	r3, r2
}
 8001032:	0018      	movs	r0, r3
 8001034:	46bd      	mov	sp, r7
 8001036:	b002      	add	sp, #8
 8001038:	bd80      	pop	{r7, pc}

0800103a <LL_SPI_ClearFlag_OVR>:
{
 800103a:	b580      	push	{r7, lr}
 800103c:	b084      	sub	sp, #16
 800103e:	af00      	add	r7, sp, #0
 8001040:	6078      	str	r0, [r7, #4]
  tmpreg = SPIx->DR;
 8001042:	687b      	ldr	r3, [r7, #4]
 8001044:	68db      	ldr	r3, [r3, #12]
 8001046:	60fb      	str	r3, [r7, #12]
  (void) tmpreg;
 8001048:	68fb      	ldr	r3, [r7, #12]
  tmpreg = SPIx->SR;
 800104a:	687b      	ldr	r3, [r7, #4]
 800104c:	689b      	ldr	r3, [r3, #8]
 800104e:	60fb      	str	r3, [r7, #12]
  (void) tmpreg;
 8001050:	68fb      	ldr	r3, [r7, #12]
}
 8001052:	46c0      	nop			@ (mov r8, r8)
 8001054:	46bd      	mov	sp, r7
 8001056:	b004      	add	sp, #16
 8001058:	bd80      	pop	{r7, pc}

0800105a <LL_SPI_EnableIT_RXNE>:
{
 800105a:	b580      	push	{r7, lr}
 800105c:	b082      	sub	sp, #8
 800105e:	af00      	add	r7, sp, #0
 8001060:	6078      	str	r0, [r7, #4]
  SET_BIT(SPIx->CR2, SPI_CR2_RXNEIE);
 8001062:	687b      	ldr	r3, [r7, #4]
 8001064:	685b      	ldr	r3, [r3, #4]
 8001066:	2240      	movs	r2, #64	@ 0x40
 8001068:	431a      	orrs	r2, r3
 800106a:	687b      	ldr	r3, [r7, #4]
 800106c:	605a      	str	r2, [r3, #4]
}
 800106e:	46c0      	nop			@ (mov r8, r8)
 8001070:	46bd      	mov	sp, r7
 8001072:	b002      	add	sp, #8
 8001074:	bd80      	pop	{r7, pc}

08001076 <LL_SPI_EnableIT_TXE>:
{
 8001076:	b580      	push	{r7, lr}
 8001078:	b082      	sub	sp, #8
 800107a:	af00      	add	r7, sp, #0
 800107c:	6078      	str	r0, [r7, #4]
  SET_BIT(SPIx->CR2, SPI_CR2_TXEIE);
 800107e:	687b      	ldr	r3, [r7, #4]
 8001080:	685b      	ldr	r3, [r3, #4]
 8001082:	2280      	movs	r2, #128	@ 0x80
 8001084:	431a      	orrs	r2, r3
 8001086:	687b      	ldr	r3, [r7, #4]
 8001088:	605a      	str	r2, [r3, #4]
}
 800108a:	46c0      	nop			@ (mov r8, r8)
 800108c:	46bd      	mov	sp, r7
 800108e:	b002      	add	sp, #8
 8001090:	bd80      	pop	{r7, pc}

08001092 <LL_SPI_DisableIT_RXNE>:
{
 8001092:	b580      	push	{r7, lr}
 8001094:	b082      	sub	sp, #8
 8001096:	af00      	add	r7, sp, #0
 8001098:	6078      	str	r0, [r7, #4]
  CLEAR_BIT(SPIx->CR2, SPI_CR2_RXNEIE);
 800109a:	687b      	ldr	r3, [r7, #4]
 800109c:	685b      	ldr	r3, [r3, #4]
 800109e:	2240      	movs	r2, #64	@ 0x40
 80010a0:	4393      	bics	r3, r2
 80010a2:	001a      	movs	r2, r3
 80010a4:	687b      	ldr	r3, [r7, #4]
 80010a6:	605a      	str	r2, [r3, #4]
}
 80010a8:	46c0      	nop			@ (mov r8, r8)
 80010aa:	46bd      	mov	sp, r7
 80010ac:	b002      	add	sp, #8
 80010ae:	bd80      	pop	{r7, pc}

080010b0 <LL_SPI_DisableIT_TXE>:
{
 80010b0:	b580      	push	{r7, lr}
 80010b2:	b082      	sub	sp, #8
 80010b4:	af00      	add	r7, sp, #0
 80010b6:	6078      	str	r0, [r7, #4]
  CLEAR_BIT(SPIx->CR2, SPI_CR2_TXEIE);
 80010b8:	687b      	ldr	r3, [r7, #4]
 80010ba:	685b      	ldr	r3, [r3, #4]
 80010bc:	2280      	movs	r2, #128	@ 0x80
 80010be:	4393      	bics	r3, r2
 80010c0:	001a      	movs	r2, r3
 80010c2:	687b      	ldr	r3, [r7, #4]
 80010c4:	605a      	str	r2, [r3, #4]
}
 80010c6:	46c0      	nop			@ (mov r8, r8)
 80010c8:	46bd      	mov	sp, r7
 80010ca:	b002      	add	sp, #8
 80010cc:	bd80      	pop	{r7, pc}

080010ce <LL_SPI_IsEnabledIT_RXNE>:
{
 80010ce:	b580      	push	{r7, lr}
 80010d0:	b082      	sub	sp, #8
 80010d2:	af00      	add	r7, sp, #0
 80010d4:	6078      	str	r0, [r7, #4]
  return ((READ_BIT(SPIx->CR2, SPI_CR2_RXNEIE) == (SPI_CR2_RXNEIE)) ? 1UL : 0UL);
 80010d6:	687b      	ldr	r3, [r7, #4]
 80010d8:	685b      	ldr	r3, [r3, #4]
 80010da:	2240      	movs	r2, #64	@ 0x40
 80010dc:	4013      	ands	r3, r2
 80010de:	2b40      	cmp	r3, #64	@ 0x40
 80010e0:	d101      	bne.n	80010e6 <LL_SPI_IsEnabledIT_RXNE+0x18>
 80010e2:	2301      	movs	r3, #1
 80010e4:	e000      	b.n	80010e8 <LL_SPI_IsEnabledIT_RXNE+0x1a>
 80010e6:	2300      	movs	r3, #0
}
 80010e8:	0018      	movs	r0, r3
 80010ea:	46bd      	mov	sp, r7
 80010ec:	b002      	add	sp, #8
 80010ee:	bd80      	pop	{r7, pc}

080010f0 <LL_SPI_ReceiveData8>:
{
 80010f0:	b580      	push	{r7, lr}
 80010f2:	b082      	sub	sp, #8
 80010f4:	af00      	add	r7, sp, #0
 80010f6:	6078      	str	r0, [r7, #4]
  return (*((__IO uint8_t *)&SPIx->DR));
 80010f8:	687b      	ldr	r3, [r7, #4]
 80010fa:	330c      	adds	r3, #12
 80010fc:	781b      	ldrb	r3, [r3, #0]
 80010fe:	b2db      	uxtb	r3, r3
}
 8001100:	0018      	movs	r0, r3
 8001102:	46bd      	mov	sp, r7
 8001104:	b002      	add	sp, #8
 8001106:	bd80      	pop	{r7, pc}

08001108 <LL_SPI_TransmitData8>:
{
 8001108:	b580      	push	{r7, lr}
 800110a:	b084      	sub	sp, #16
 800110c:	af00      	add	r7, sp, #0
 800110e:	6078      	str	r0, [r7, #4]
 8001110:	000a      	movs	r2, r1
 8001112:	1cfb      	adds	r3, r7, #3
 8001114:	701a      	strb	r2, [r3, #0]
  __IO uint8_t *spidr = ((__IO uint8_t *)&SPIx->DR);
 8001116:	687b      	ldr	r3, [r7, #4]
 8001118:	330c      	adds	r3, #12
 800111a:	60fb      	str	r3, [r7, #12]
  *spidr = TxData;
 800111c:	68fb      	ldr	r3, [r7, #12]
 800111e:	1cfa      	adds	r2, r7, #3
 8001120:	7812      	ldrb	r2, [r2, #0]
 8001122:	701a      	strb	r2, [r3, #0]
}
 8001124:	46c0      	nop			@ (mov r8, r8)
 8001126:	46bd      	mov	sp, r7
 8001128:	b004      	add	sp, #16
 800112a:	bd80      	pop	{r7, pc}

0800112c <LL_GPIO_SetOutputPin>:
{
 800112c:	b580      	push	{r7, lr}
 800112e:	b082      	sub	sp, #8
 8001130:	af00      	add	r7, sp, #0
 8001132:	6078      	str	r0, [r7, #4]
 8001134:	6039      	str	r1, [r7, #0]
  WRITE_REG(GPIOx->BSRR, PinMask);
 8001136:	687b      	ldr	r3, [r7, #4]
 8001138:	683a      	ldr	r2, [r7, #0]
 800113a:	619a      	str	r2, [r3, #24]
}
 800113c:	46c0      	nop			@ (mov r8, r8)
 800113e:	46bd      	mov	sp, r7
 8001140:	b002      	add	sp, #8
 8001142:	bd80      	pop	{r7, pc}

08001144 <LL_GPIO_ResetOutputPin>:
{
 8001144:	b580      	push	{r7, lr}
 8001146:	b082      	sub	sp, #8
 8001148:	af00      	add	r7, sp, #0
 800114a:	6078      	str	r0, [r7, #4]
 800114c:	6039      	str	r1, [r7, #0]
  WRITE_REG(GPIOx->BRR, PinMask);
 800114e:	687b      	ldr	r3, [r7, #4]
 8001150:	683a      	ldr	r2, [r7, #0]
 8001152:	629a      	str	r2, [r3, #40]	@ 0x28
}
 8001154:	46c0      	nop			@ (mov r8, r8)
 8001156:	46bd      	mov	sp, r7
 8001158:	b002      	add	sp, #8
 800115a:	bd80      	pop	{r7, pc}

0800115c <SPI_Read_Data_IT>:
static uint32_t rxLeft;

//Enables SPI via interrupt
//!!!!!!! SPI HAS TO BE OFF BEFORE METHOD !!!!!!!!!!!!!!!!!!!
void SPI_Read_Data_IT(uint32_t size)
{
 800115c:	b580      	push	{r7, lr}
 800115e:	b082      	sub	sp, #8
 8001160:	af00      	add	r7, sp, #0
 8001162:	6078      	str	r0, [r7, #4]
	rxLeft = size;
 8001164:	4b09      	ldr	r3, [pc, #36]	@ (800118c <SPI_Read_Data_IT+0x30>)
 8001166:	687a      	ldr	r2, [r7, #4]
 8001168:	601a      	str	r2, [r3, #0]

	LL_SPI_EnableIT_TXE(SPI1);
 800116a:	4b09      	ldr	r3, [pc, #36]	@ (8001190 <SPI_Read_Data_IT+0x34>)
 800116c:	0018      	movs	r0, r3
 800116e:	f7ff ff82 	bl	8001076 <LL_SPI_EnableIT_TXE>
	LL_SPI_EnableIT_RXNE(SPI1);
 8001172:	4b07      	ldr	r3, [pc, #28]	@ (8001190 <SPI_Read_Data_IT+0x34>)
 8001174:	0018      	movs	r0, r3
 8001176:	f7ff ff70 	bl	800105a <LL_SPI_EnableIT_RXNE>
	LL_SPI_Enable(SPI1);
 800117a:	4b05      	ldr	r3, [pc, #20]	@ (8001190 <SPI_Read_Data_IT+0x34>)
 800117c:	0018      	movs	r0, r3
 800117e:	f7ff ff14 	bl	8000faa <LL_SPI_Enable>
}
 8001182:	46c0      	nop			@ (mov r8, r8)
 8001184:	46bd      	mov	sp, r7
 8001186:	b002      	add	sp, #8
 8001188:	bd80      	pop	{r7, pc}
 800118a:	46c0      	nop			@ (mov r8, r8)
 800118c:	20000850 	.word	0x20000850
 8001190:	40013000 	.word	0x40013000

08001194 <spi_it_receive_callback>:

//interrupt callback appends active buffer
//if job is finished turns of spi
void spi_it_receive_callback()
{
 8001194:	b580      	push	{r7, lr}
 8001196:	af00      	add	r7, sp, #0
	if(rxLeft > 0)
 8001198:	4b24      	ldr	r3, [pc, #144]	@ (800122c <spi_it_receive_callback+0x98>)
 800119a:	681b      	ldr	r3, [r3, #0]
 800119c:	2b00      	cmp	r3, #0
 800119e:	d00c      	beq.n	80011ba <spi_it_receive_callback+0x26>
	{
		BufferAppend(LL_SPI_ReceiveData8(SPI1));
 80011a0:	4b23      	ldr	r3, [pc, #140]	@ (8001230 <spi_it_receive_callback+0x9c>)
 80011a2:	0018      	movs	r0, r3
 80011a4:	f7ff ffa4 	bl	80010f0 <LL_SPI_ReceiveData8>
 80011a8:	0003      	movs	r3, r0
 80011aa:	0018      	movs	r0, r3
 80011ac:	f7ff f872 	bl	8000294 <BufferAppend>
		rxLeft--;
 80011b0:	4b1e      	ldr	r3, [pc, #120]	@ (800122c <spi_it_receive_callback+0x98>)
 80011b2:	681b      	ldr	r3, [r3, #0]
 80011b4:	1e5a      	subs	r2, r3, #1
 80011b6:	4b1d      	ldr	r3, [pc, #116]	@ (800122c <spi_it_receive_callback+0x98>)
 80011b8:	601a      	str	r2, [r3, #0]
	}

	if(rxLeft <= 0)
 80011ba:	4b1c      	ldr	r3, [pc, #112]	@ (800122c <spi_it_receive_callback+0x98>)
 80011bc:	681b      	ldr	r3, [r3, #0]
 80011be:	2b00      	cmp	r3, #0
 80011c0:	d130      	bne.n	8001224 <spi_it_receive_callback+0x90>
	{
		LL_SPI_DisableIT_RXNE(SPI1);
 80011c2:	4b1b      	ldr	r3, [pc, #108]	@ (8001230 <spi_it_receive_callback+0x9c>)
 80011c4:	0018      	movs	r0, r3
 80011c6:	f7ff ff64 	bl	8001092 <LL_SPI_DisableIT_RXNE>
		LL_SPI_DisableIT_TXE(SPI1);
 80011ca:	4b19      	ldr	r3, [pc, #100]	@ (8001230 <spi_it_receive_callback+0x9c>)
 80011cc:	0018      	movs	r0, r3
 80011ce:	f7ff ff6f 	bl	80010b0 <LL_SPI_DisableIT_TXE>

		while(LL_SPI_GetTxFIFOLevel(SPI1) != LL_SPI_TX_FIFO_EMPTY);
 80011d2:	46c0      	nop			@ (mov r8, r8)
 80011d4:	4b16      	ldr	r3, [pc, #88]	@ (8001230 <spi_it_receive_callback+0x9c>)
 80011d6:	0018      	movs	r0, r3
 80011d8:	f7ff ff22 	bl	8001020 <LL_SPI_GetTxFIFOLevel>
 80011dc:	1e03      	subs	r3, r0, #0
 80011de:	d1f9      	bne.n	80011d4 <spi_it_receive_callback+0x40>

		while(LL_SPI_IsActiveFlag_BSY(SPI1));
 80011e0:	46c0      	nop			@ (mov r8, r8)
 80011e2:	4b13      	ldr	r3, [pc, #76]	@ (8001230 <spi_it_receive_callback+0x9c>)
 80011e4:	0018      	movs	r0, r3
 80011e6:	f7ff fefd 	bl	8000fe4 <LL_SPI_IsActiveFlag_BSY>
 80011ea:	1e03      	subs	r3, r0, #0
 80011ec:	d1f9      	bne.n	80011e2 <spi_it_receive_callback+0x4e>

		LL_SPI_Disable(SPI1);
 80011ee:	4b10      	ldr	r3, [pc, #64]	@ (8001230 <spi_it_receive_callback+0x9c>)
 80011f0:	0018      	movs	r0, r3
 80011f2:	f7ff fee8 	bl	8000fc6 <LL_SPI_Disable>

		while(LL_SPI_GetRxFIFOLevel(SPI1) != LL_SPI_RX_FIFO_EMPTY)
 80011f6:	e003      	b.n	8001200 <spi_it_receive_callback+0x6c>
		{ (void) LL_SPI_ReceiveData8(SPI1);}
 80011f8:	4b0d      	ldr	r3, [pc, #52]	@ (8001230 <spi_it_receive_callback+0x9c>)
 80011fa:	0018      	movs	r0, r3
 80011fc:	f7ff ff78 	bl	80010f0 <LL_SPI_ReceiveData8>
		while(LL_SPI_GetRxFIFOLevel(SPI1) != LL_SPI_RX_FIFO_EMPTY)
 8001200:	4b0b      	ldr	r3, [pc, #44]	@ (8001230 <spi_it_receive_callback+0x9c>)
 8001202:	0018      	movs	r0, r3
 8001204:	f7ff feff 	bl	8001006 <LL_SPI_GetRxFIFOLevel>
 8001208:	1e03      	subs	r3, r0, #0
 800120a:	d1f5      	bne.n	80011f8 <spi_it_receive_callback+0x64>

		LL_SPI_ClearFlag_OVR(SPI1);
 800120c:	4b08      	ldr	r3, [pc, #32]	@ (8001230 <spi_it_receive_callback+0x9c>)
 800120e:	0018      	movs	r0, r3
 8001210:	f7ff ff13 	bl	800103a <LL_SPI_ClearFlag_OVR>

		CS_HIGH();
 8001214:	23a0      	movs	r3, #160	@ 0xa0
 8001216:	05db      	lsls	r3, r3, #23
 8001218:	2180      	movs	r1, #128	@ 0x80
 800121a:	0018      	movs	r0, r3
 800121c:	f7ff ff86 	bl	800112c <LL_GPIO_SetOutputPin>

		BufferCommit();
 8001220:	f7ff f85e 	bl	80002e0 <BufferCommit>
	}
}
 8001224:	46c0      	nop			@ (mov r8, r8)
 8001226:	46bd      	mov	sp, r7
 8001228:	bd80      	pop	{r7, pc}
 800122a:	46c0      	nop			@ (mov r8, r8)
 800122c:	20000850 	.word	0x20000850
 8001230:	40013000 	.word	0x40013000

08001234 <spi_it_transmit_callback>:

#define DUMMY_BYTE 0x00

//Sending dummy byte for transmission to begin
void spi_it_transmit_callback(void)
{
 8001234:	b580      	push	{r7, lr}
 8001236:	af00      	add	r7, sp, #0

	if(rxLeft > 0)LL_SPI_TransmitData8(SPI1, DUMMY_BYTE);
 8001238:	4b1e      	ldr	r3, [pc, #120]	@ (80012b4 <spi_it_transmit_callback+0x80>)
 800123a:	681b      	ldr	r3, [r3, #0]
 800123c:	2b00      	cmp	r3, #0
 800123e:	d004      	beq.n	800124a <spi_it_transmit_callback+0x16>
 8001240:	4b1d      	ldr	r3, [pc, #116]	@ (80012b8 <spi_it_transmit_callback+0x84>)
 8001242:	2100      	movs	r1, #0
 8001244:	0018      	movs	r0, r3
 8001246:	f7ff ff5f 	bl	8001108 <LL_SPI_TransmitData8>

	if(!LL_SPI_IsEnabledIT_RXNE(SPI1))
 800124a:	4b1b      	ldr	r3, [pc, #108]	@ (80012b8 <spi_it_transmit_callback+0x84>)
 800124c:	0018      	movs	r0, r3
 800124e:	f7ff ff3e 	bl	80010ce <LL_SPI_IsEnabledIT_RXNE>
 8001252:	1e03      	subs	r3, r0, #0
 8001254:	d12a      	bne.n	80012ac <spi_it_transmit_callback+0x78>
	{
		LL_SPI_DisableIT_TXE(SPI1);
 8001256:	4b18      	ldr	r3, [pc, #96]	@ (80012b8 <spi_it_transmit_callback+0x84>)
 8001258:	0018      	movs	r0, r3
 800125a:	f7ff ff29 	bl	80010b0 <LL_SPI_DisableIT_TXE>

		while(LL_SPI_GetTxFIFOLevel(SPI1) != LL_SPI_TX_FIFO_EMPTY);
 800125e:	46c0      	nop			@ (mov r8, r8)
 8001260:	4b15      	ldr	r3, [pc, #84]	@ (80012b8 <spi_it_transmit_callback+0x84>)
 8001262:	0018      	movs	r0, r3
 8001264:	f7ff fedc 	bl	8001020 <LL_SPI_GetTxFIFOLevel>
 8001268:	1e03      	subs	r3, r0, #0
 800126a:	d1f9      	bne.n	8001260 <spi_it_transmit_callback+0x2c>

		while(LL_SPI_IsActiveFlag_BSY(SPI1));
 800126c:	46c0      	nop			@ (mov r8, r8)
 800126e:	4b12      	ldr	r3, [pc, #72]	@ (80012b8 <spi_it_transmit_callback+0x84>)
 8001270:	0018      	movs	r0, r3
 8001272:	f7ff feb7 	bl	8000fe4 <LL_SPI_IsActiveFlag_BSY>
 8001276:	1e03      	subs	r3, r0, #0
 8001278:	d1f9      	bne.n	800126e <spi_it_transmit_callback+0x3a>

		LL_SPI_Disable(SPI1);
 800127a:	4b0f      	ldr	r3, [pc, #60]	@ (80012b8 <spi_it_transmit_callback+0x84>)
 800127c:	0018      	movs	r0, r3
 800127e:	f7ff fea2 	bl	8000fc6 <LL_SPI_Disable>

		while(LL_SPI_GetRxFIFOLevel(SPI1) != LL_SPI_RX_FIFO_EMPTY)
 8001282:	e003      	b.n	800128c <spi_it_transmit_callback+0x58>
		{ (void) LL_SPI_ReceiveData8(SPI1);}
 8001284:	4b0c      	ldr	r3, [pc, #48]	@ (80012b8 <spi_it_transmit_callback+0x84>)
 8001286:	0018      	movs	r0, r3
 8001288:	f7ff ff32 	bl	80010f0 <LL_SPI_ReceiveData8>
		while(LL_SPI_GetRxFIFOLevel(SPI1) != LL_SPI_RX_FIFO_EMPTY)
 800128c:	4b0a      	ldr	r3, [pc, #40]	@ (80012b8 <spi_it_transmit_callback+0x84>)
 800128e:	0018      	movs	r0, r3
 8001290:	f7ff feb9 	bl	8001006 <LL_SPI_GetRxFIFOLevel>
 8001294:	1e03      	subs	r3, r0, #0
 8001296:	d1f5      	bne.n	8001284 <spi_it_transmit_callback+0x50>

		LL_SPI_ClearFlag_OVR(SPI1);
 8001298:	4b07      	ldr	r3, [pc, #28]	@ (80012b8 <spi_it_transmit_callback+0x84>)
 800129a:	0018      	movs	r0, r3
 800129c:	f7ff fecd 	bl	800103a <LL_SPI_ClearFlag_OVR>

		CS_HIGH();
 80012a0:	23a0      	movs	r3, #160	@ 0xa0
 80012a2:	05db      	lsls	r3, r3, #23
 80012a4:	2180      	movs	r1, #128	@ 0x80
 80012a6:	0018      	movs	r0, r3
 80012a8:	f7ff ff40 	bl	800112c <LL_GPIO_SetOutputPin>
	}
}
 80012ac:	46c0      	nop			@ (mov r8, r8)
 80012ae:	46bd      	mov	sp, r7
 80012b0:	bd80      	pop	{r7, pc}
 80012b2:	46c0      	nop			@ (mov r8, r8)
 80012b4:	20000850 	.word	0x20000850
 80012b8:	40013000 	.word	0x40013000

080012bc <FAST_READ_IT>:
}

//FLASH specific
//fast reads size of bytes
void FAST_READ_IT(uint32_t address,uint16_t size)
{
 80012bc:	b590      	push	{r4, r7, lr}
 80012be:	b085      	sub	sp, #20
 80012c0:	af00      	add	r7, sp, #0
 80012c2:	6078      	str	r0, [r7, #4]
 80012c4:	000a      	movs	r2, r1
 80012c6:	1cbb      	adds	r3, r7, #2
 80012c8:	801a      	strh	r2, [r3, #0]
	uint8_t tData[5] = {0};
 80012ca:	2408      	movs	r4, #8
 80012cc:	193b      	adds	r3, r7, r4
 80012ce:	0018      	movs	r0, r3
 80012d0:	2305      	movs	r3, #5
 80012d2:	001a      	movs	r2, r3
 80012d4:	2100      	movs	r1, #0
 80012d6:	f001 fe95 	bl	8003004 <memset>

	tData[0] = FAST_READ;
 80012da:	0021      	movs	r1, r4
 80012dc:	187b      	adds	r3, r7, r1
 80012de:	220b      	movs	r2, #11
 80012e0:	701a      	strb	r2, [r3, #0]
	tData[1] = (address>>16)&0xFF;
 80012e2:	687b      	ldr	r3, [r7, #4]
 80012e4:	0c1b      	lsrs	r3, r3, #16
 80012e6:	b2da      	uxtb	r2, r3
 80012e8:	187b      	adds	r3, r7, r1
 80012ea:	705a      	strb	r2, [r3, #1]
	tData[2] = (address>>8)&0xFF;
 80012ec:	687b      	ldr	r3, [r7, #4]
 80012ee:	0a1b      	lsrs	r3, r3, #8
 80012f0:	b2da      	uxtb	r2, r3
 80012f2:	187b      	adds	r3, r7, r1
 80012f4:	709a      	strb	r2, [r3, #2]
	tData[3] = (address)&0xFF;
 80012f6:	687b      	ldr	r3, [r7, #4]
 80012f8:	b2da      	uxtb	r2, r3
 80012fa:	187b      	adds	r3, r7, r1
 80012fc:	70da      	strb	r2, [r3, #3]
	tData[4] = 0x00; //dummy byte
 80012fe:	000c      	movs	r4, r1
 8001300:	187b      	adds	r3, r7, r1
 8001302:	2200      	movs	r2, #0
 8001304:	711a      	strb	r2, [r3, #4]

	CS_LOW();
 8001306:	23a0      	movs	r3, #160	@ 0xa0
 8001308:	05db      	lsls	r3, r3, #23
 800130a:	2180      	movs	r1, #128	@ 0x80
 800130c:	0018      	movs	r0, r3
 800130e:	f7ff ff19 	bl	8001144 <LL_GPIO_ResetOutputPin>

	SPI_Transmit_Data8(SPI1,tData,5);
 8001312:	193b      	adds	r3, r7, r4
 8001314:	4808      	ldr	r0, [pc, #32]	@ (8001338 <FAST_READ_IT+0x7c>)
 8001316:	2205      	movs	r2, #5
 8001318:	0019      	movs	r1, r3
 800131a:	f7ff fe04 	bl	8000f26 <SPI_Transmit_Data8>
	LL_SPI_Disable(SPI1);
 800131e:	4b06      	ldr	r3, [pc, #24]	@ (8001338 <FAST_READ_IT+0x7c>)
 8001320:	0018      	movs	r0, r3
 8001322:	f7ff fe50 	bl	8000fc6 <LL_SPI_Disable>
	SPI_Read_Data_IT(size);
 8001326:	1cbb      	adds	r3, r7, #2
 8001328:	881b      	ldrh	r3, [r3, #0]
 800132a:	0018      	movs	r0, r3
 800132c:	f7ff ff16 	bl	800115c <SPI_Read_Data_IT>
}
 8001330:	46c0      	nop			@ (mov r8, r8)
 8001332:	46bd      	mov	sp, r7
 8001334:	b005      	add	sp, #20
 8001336:	bd90      	pop	{r4, r7, pc}
 8001338:	40013000 	.word	0x40013000

0800133c <LL_EXTI_IsActiveFallingFlag_0_31>:
{
 800133c:	b580      	push	{r7, lr}
 800133e:	b082      	sub	sp, #8
 8001340:	af00      	add	r7, sp, #0
 8001342:	6078      	str	r0, [r7, #4]
  return ((READ_BIT(EXTI->FPR1, ExtiLine) == (ExtiLine)) ? 1UL : 0UL);
 8001344:	4b06      	ldr	r3, [pc, #24]	@ (8001360 <LL_EXTI_IsActiveFallingFlag_0_31+0x24>)
 8001346:	691b      	ldr	r3, [r3, #16]
 8001348:	687a      	ldr	r2, [r7, #4]
 800134a:	4013      	ands	r3, r2
 800134c:	687a      	ldr	r2, [r7, #4]
 800134e:	429a      	cmp	r2, r3
 8001350:	d101      	bne.n	8001356 <LL_EXTI_IsActiveFallingFlag_0_31+0x1a>
 8001352:	2301      	movs	r3, #1
 8001354:	e000      	b.n	8001358 <LL_EXTI_IsActiveFallingFlag_0_31+0x1c>
 8001356:	2300      	movs	r3, #0
}
 8001358:	0018      	movs	r0, r3
 800135a:	46bd      	mov	sp, r7
 800135c:	b002      	add	sp, #8
 800135e:	bd80      	pop	{r7, pc}
 8001360:	40021800 	.word	0x40021800

08001364 <LL_EXTI_ClearFallingFlag_0_31>:
{
 8001364:	b580      	push	{r7, lr}
 8001366:	b082      	sub	sp, #8
 8001368:	af00      	add	r7, sp, #0
 800136a:	6078      	str	r0, [r7, #4]
  WRITE_REG(EXTI->FPR1, ExtiLine);
 800136c:	4b03      	ldr	r3, [pc, #12]	@ (800137c <LL_EXTI_ClearFallingFlag_0_31+0x18>)
 800136e:	687a      	ldr	r2, [r7, #4]
 8001370:	611a      	str	r2, [r3, #16]
}
 8001372:	46c0      	nop			@ (mov r8, r8)
 8001374:	46bd      	mov	sp, r7
 8001376:	b002      	add	sp, #8
 8001378:	bd80      	pop	{r7, pc}
 800137a:	46c0      	nop			@ (mov r8, r8)
 800137c:	40021800 	.word	0x40021800

08001380 <LL_SPI_IsActiveFlag_RXNE>:
{
 8001380:	b580      	push	{r7, lr}
 8001382:	b082      	sub	sp, #8
 8001384:	af00      	add	r7, sp, #0
 8001386:	6078      	str	r0, [r7, #4]
  return ((READ_BIT(SPIx->SR, SPI_SR_RXNE) == (SPI_SR_RXNE)) ? 1UL : 0UL);
 8001388:	687b      	ldr	r3, [r7, #4]
 800138a:	689b      	ldr	r3, [r3, #8]
 800138c:	2201      	movs	r2, #1
 800138e:	4013      	ands	r3, r2
 8001390:	2b01      	cmp	r3, #1
 8001392:	d101      	bne.n	8001398 <LL_SPI_IsActiveFlag_RXNE+0x18>
 8001394:	2301      	movs	r3, #1
 8001396:	e000      	b.n	800139a <LL_SPI_IsActiveFlag_RXNE+0x1a>
 8001398:	2300      	movs	r3, #0
}
 800139a:	0018      	movs	r0, r3
 800139c:	46bd      	mov	sp, r7
 800139e:	b002      	add	sp, #8
 80013a0:	bd80      	pop	{r7, pc}

080013a2 <LL_SPI_IsActiveFlag_TXE>:
{
 80013a2:	b580      	push	{r7, lr}
 80013a4:	b082      	sub	sp, #8
 80013a6:	af00      	add	r7, sp, #0
 80013a8:	6078      	str	r0, [r7, #4]
  return ((READ_BIT(SPIx->SR, SPI_SR_TXE) == (SPI_SR_TXE)) ? 1UL : 0UL);
 80013aa:	687b      	ldr	r3, [r7, #4]
 80013ac:	689b      	ldr	r3, [r3, #8]
 80013ae:	2202      	movs	r2, #2
 80013b0:	4013      	ands	r3, r2
 80013b2:	2b02      	cmp	r3, #2
 80013b4:	d101      	bne.n	80013ba <LL_SPI_IsActiveFlag_TXE+0x18>
 80013b6:	2301      	movs	r3, #1
 80013b8:	e000      	b.n	80013bc <LL_SPI_IsActiveFlag_TXE+0x1a>
 80013ba:	2300      	movs	r3, #0
}
 80013bc:	0018      	movs	r0, r3
 80013be:	46bd      	mov	sp, r7
 80013c0:	b002      	add	sp, #8
 80013c2:	bd80      	pop	{r7, pc}

080013c4 <LL_SPI_IsEnabledIT_RXNE>:
{
 80013c4:	b580      	push	{r7, lr}
 80013c6:	b082      	sub	sp, #8
 80013c8:	af00      	add	r7, sp, #0
 80013ca:	6078      	str	r0, [r7, #4]
  return ((READ_BIT(SPIx->CR2, SPI_CR2_RXNEIE) == (SPI_CR2_RXNEIE)) ? 1UL : 0UL);
 80013cc:	687b      	ldr	r3, [r7, #4]
 80013ce:	685b      	ldr	r3, [r3, #4]
 80013d0:	2240      	movs	r2, #64	@ 0x40
 80013d2:	4013      	ands	r3, r2
 80013d4:	2b40      	cmp	r3, #64	@ 0x40
 80013d6:	d101      	bne.n	80013dc <LL_SPI_IsEnabledIT_RXNE+0x18>
 80013d8:	2301      	movs	r3, #1
 80013da:	e000      	b.n	80013de <LL_SPI_IsEnabledIT_RXNE+0x1a>
 80013dc:	2300      	movs	r3, #0
}
 80013de:	0018      	movs	r0, r3
 80013e0:	46bd      	mov	sp, r7
 80013e2:	b002      	add	sp, #8
 80013e4:	bd80      	pop	{r7, pc}

080013e6 <LL_SPI_IsEnabledIT_TXE>:
{
 80013e6:	b580      	push	{r7, lr}
 80013e8:	b082      	sub	sp, #8
 80013ea:	af00      	add	r7, sp, #0
 80013ec:	6078      	str	r0, [r7, #4]
  return ((READ_BIT(SPIx->CR2, SPI_CR2_TXEIE) == (SPI_CR2_TXEIE)) ? 1UL : 0UL);
 80013ee:	687b      	ldr	r3, [r7, #4]
 80013f0:	685b      	ldr	r3, [r3, #4]
 80013f2:	2280      	movs	r2, #128	@ 0x80
 80013f4:	4013      	ands	r3, r2
 80013f6:	2b80      	cmp	r3, #128	@ 0x80
 80013f8:	d101      	bne.n	80013fe <LL_SPI_IsEnabledIT_TXE+0x18>
 80013fa:	2301      	movs	r3, #1
 80013fc:	e000      	b.n	8001400 <LL_SPI_IsEnabledIT_TXE+0x1a>
 80013fe:	2300      	movs	r3, #0
}
 8001400:	0018      	movs	r0, r3
 8001402:	46bd      	mov	sp, r7
 8001404:	b002      	add	sp, #8
 8001406:	bd80      	pop	{r7, pc}

08001408 <LL_TIM_ClearFlag_UPDATE>:
  * @rmtoll SR           UIF           LL_TIM_ClearFlag_UPDATE
  * @param  TIMx Timer instance
  * @retval None
  */
__STATIC_INLINE void LL_TIM_ClearFlag_UPDATE(TIM_TypeDef *TIMx)
{
 8001408:	b580      	push	{r7, lr}
 800140a:	b082      	sub	sp, #8
 800140c:	af00      	add	r7, sp, #0
 800140e:	6078      	str	r0, [r7, #4]
  WRITE_REG(TIMx->SR, ~(TIM_SR_UIF));
 8001410:	687b      	ldr	r3, [r7, #4]
 8001412:	2202      	movs	r2, #2
 8001414:	4252      	negs	r2, r2
 8001416:	611a      	str	r2, [r3, #16]
}
 8001418:	46c0      	nop			@ (mov r8, r8)
 800141a:	46bd      	mov	sp, r7
 800141c:	b002      	add	sp, #8
 800141e:	bd80      	pop	{r7, pc}

08001420 <LL_TIM_IsActiveFlag_UPDATE>:
  * @rmtoll SR           UIF           LL_TIM_IsActiveFlag_UPDATE
  * @param  TIMx Timer instance
  * @retval State of bit (1 or 0).
  */
__STATIC_INLINE uint32_t LL_TIM_IsActiveFlag_UPDATE(const TIM_TypeDef *TIMx)
{
 8001420:	b580      	push	{r7, lr}
 8001422:	b082      	sub	sp, #8
 8001424:	af00      	add	r7, sp, #0
 8001426:	6078      	str	r0, [r7, #4]
  return ((READ_BIT(TIMx->SR, TIM_SR_UIF) == (TIM_SR_UIF)) ? 1UL : 0UL);
 8001428:	687b      	ldr	r3, [r7, #4]
 800142a:	691b      	ldr	r3, [r3, #16]
 800142c:	2201      	movs	r2, #1
 800142e:	4013      	ands	r3, r2
 8001430:	2b01      	cmp	r3, #1
 8001432:	d101      	bne.n	8001438 <LL_TIM_IsActiveFlag_UPDATE+0x18>
 8001434:	2301      	movs	r3, #1
 8001436:	e000      	b.n	800143a <LL_TIM_IsActiveFlag_UPDATE+0x1a>
 8001438:	2300      	movs	r3, #0
}
 800143a:	0018      	movs	r0, r3
 800143c:	46bd      	mov	sp, r7
 800143e:	b002      	add	sp, #8
 8001440:	bd80      	pop	{r7, pc}

08001442 <NMI_Handler>:
/******************************************************************************/
/**
  * @brief This function handles Non maskable interrupt.
  */
void NMI_Handler(void)
{
 8001442:	b580      	push	{r7, lr}
 8001444:	af00      	add	r7, sp, #0
  /* USER CODE BEGIN NonMaskableInt_IRQn 0 */

  /* USER CODE END NonMaskableInt_IRQn 0 */
  /* USER CODE BEGIN NonMaskableInt_IRQn 1 */
   while (1)
 8001446:	46c0      	nop			@ (mov r8, r8)
 8001448:	e7fd      	b.n	8001446 <NMI_Handler+0x4>

0800144a <HardFault_Handler>:

/**
  * @brief This function handles Hard fault interrupt.
  */
void HardFault_Handler(void)
{
 800144a:	b580      	push	{r7, lr}
 800144c:	af00      	add	r7, sp, #0
  /* USER CODE BEGIN HardFault_IRQn 0 */

  /* USER CODE END HardFault_IRQn 0 */
  while (1)
 800144e:	46c0      	nop			@ (mov r8, r8)
 8001450:	e7fd      	b.n	800144e <HardFault_Handler+0x4>

08001452 <SVC_Handler>:

/**
  * @brief This function handles System service call via SWI instruction.
  */
void SVC_Handler(void)
{
 8001452:	b580      	push	{r7, lr}
 8001454:	af00      	add	r7, sp, #0

  /* USER CODE END SVC_IRQn 0 */
  /* USER CODE BEGIN SVC_IRQn 1 */

  /* USER CODE END SVC_IRQn 1 */
}
 8001456:	46c0      	nop			@ (mov r8, r8)
 8001458:	46bd      	mov	sp, r7
 800145a:	bd80      	pop	{r7, pc}

0800145c <PendSV_Handler>:

/**
  * @brief This function handles Pendable request for system service.
  */
void PendSV_Handler(void)
{
 800145c:	b580      	push	{r7, lr}
 800145e:	af00      	add	r7, sp, #0

  /* USER CODE END PendSV_IRQn 0 */
  /* USER CODE BEGIN PendSV_IRQn 1 */

  /* USER CODE END PendSV_IRQn 1 */
}
 8001460:	46c0      	nop			@ (mov r8, r8)
 8001462:	46bd      	mov	sp, r7
 8001464:	bd80      	pop	{r7, pc}

08001466 <SysTick_Handler>:

/**
  * @brief This function handles System tick timer.
  */
void SysTick_Handler(void)
{
 8001466:	b580      	push	{r7, lr}
 8001468:	af00      	add	r7, sp, #0
  /* USER CODE END SysTick_IRQn 0 */

  /* USER CODE BEGIN SysTick_IRQn 1 */

  /* USER CODE END SysTick_IRQn 1 */
}
 800146a:	46c0      	nop			@ (mov r8, r8)
 800146c:	46bd      	mov	sp, r7
 800146e:	bd80      	pop	{r7, pc}

08001470 <EXTI4_15_IRQHandler>:

/**
  * @brief This function handles EXTI line 4 to 15 interrupts.
  */
void EXTI4_15_IRQHandler(void)
{
 8001470:	b580      	push	{r7, lr}
 8001472:	af00      	add	r7, sp, #0
  /* USER CODE BEGIN EXTI4_15_IRQn 0 */

  /* USER CODE END EXTI4_15_IRQn 0 */
  if (LL_EXTI_IsActiveFallingFlag_0_31(LL_EXTI_LINE_8) != RESET)
 8001474:	2380      	movs	r3, #128	@ 0x80
 8001476:	005b      	lsls	r3, r3, #1
 8001478:	0018      	movs	r0, r3
 800147a:	f7ff ff5f 	bl	800133c <LL_EXTI_IsActiveFallingFlag_0_31>
 800147e:	1e03      	subs	r3, r0, #0
 8001480:	d007      	beq.n	8001492 <EXTI4_15_IRQHandler+0x22>
  {
    LL_EXTI_ClearFallingFlag_0_31(LL_EXTI_LINE_8);
 8001482:	2380      	movs	r3, #128	@ 0x80
 8001484:	005b      	lsls	r3, r3, #1
 8001486:	0018      	movs	r0, r3
 8001488:	f7ff ff6c 	bl	8001364 <LL_EXTI_ClearFallingFlag_0_31>
    /* USER CODE BEGIN LL_EXTI_LINE_8_FALLING */
    selectFileToPlay(SHOOT);
 800148c:	2003      	movs	r0, #3
 800148e:	f000 fa4d 	bl	800192c <selectFileToPlay>
    /* USER CODE END LL_EXTI_LINE_8_FALLING */
  }
  if (LL_EXTI_IsActiveFallingFlag_0_31(LL_EXTI_LINE_11) != RESET)
 8001492:	2380      	movs	r3, #128	@ 0x80
 8001494:	011b      	lsls	r3, r3, #4
 8001496:	0018      	movs	r0, r3
 8001498:	f7ff ff50 	bl	800133c <LL_EXTI_IsActiveFallingFlag_0_31>
 800149c:	1e03      	subs	r3, r0, #0
 800149e:	d007      	beq.n	80014b0 <EXTI4_15_IRQHandler+0x40>
  {
    LL_EXTI_ClearFallingFlag_0_31(LL_EXTI_LINE_11);
 80014a0:	2380      	movs	r3, #128	@ 0x80
 80014a2:	011b      	lsls	r3, r3, #4
 80014a4:	0018      	movs	r0, r3
 80014a6:	f7ff ff5d 	bl	8001364 <LL_EXTI_ClearFallingFlag_0_31>
    /* USER CODE BEGIN LL_EXTI_LINE_11_FALLING */
    selectFileToPlay(CLICK);
 80014aa:	2002      	movs	r0, #2
 80014ac:	f000 fa3e 	bl	800192c <selectFileToPlay>
    /* USER CODE END LL_EXTI_LINE_11_FALLING */
  }
  /* USER CODE BEGIN EXTI4_15_IRQn 1 */

  /* USER CODE END EXTI4_15_IRQn 1 */
}
 80014b0:	46c0      	nop			@ (mov r8, r8)
 80014b2:	46bd      	mov	sp, r7
 80014b4:	bd80      	pop	{r7, pc}
	...

080014b8 <TIM1_BRK_UP_TRG_COM_IRQHandler>:

/**
  * @brief This function handles TIM1 break, update, trigger and commutation interrupts.
  */
void TIM1_BRK_UP_TRG_COM_IRQHandler(void)
{
 80014b8:	b580      	push	{r7, lr}
 80014ba:	af00      	add	r7, sp, #0
  /* USER CODE BEGIN TIM1_BRK_UP_TRG_COM_IRQn 0 */
	if(LL_TIM_IsActiveFlag_UPDATE(TIM1))
 80014bc:	4b07      	ldr	r3, [pc, #28]	@ (80014dc <TIM1_BRK_UP_TRG_COM_IRQHandler+0x24>)
 80014be:	0018      	movs	r0, r3
 80014c0:	f7ff ffae 	bl	8001420 <LL_TIM_IsActiveFlag_UPDATE>
 80014c4:	1e03      	subs	r3, r0, #0
 80014c6:	d005      	beq.n	80014d4 <TIM1_BRK_UP_TRG_COM_IRQHandler+0x1c>
	{
		LL_TIM_ClearFlag_UPDATE(TIM1);
 80014c8:	4b04      	ldr	r3, [pc, #16]	@ (80014dc <TIM1_BRK_UP_TRG_COM_IRQHandler+0x24>)
 80014ca:	0018      	movs	r0, r3
 80014cc:	f7ff ff9c 	bl	8001408 <LL_TIM_ClearFlag_UPDATE>
		TimerRoutine();
 80014d0:	f000 fa06 	bl	80018e0 <TimerRoutine>
	}
  /* USER CODE END TIM1_BRK_UP_TRG_COM_IRQn 0 */
  /* USER CODE BEGIN TIM1_BRK_UP_TRG_COM_IRQn 1 */

  /* USER CODE END TIM1_BRK_UP_TRG_COM_IRQn 1 */
}
 80014d4:	46c0      	nop			@ (mov r8, r8)
 80014d6:	46bd      	mov	sp, r7
 80014d8:	bd80      	pop	{r7, pc}
 80014da:	46c0      	nop			@ (mov r8, r8)
 80014dc:	40012c00 	.word	0x40012c00

080014e0 <TIM1_CC_IRQHandler>:

/**
  * @brief This function handles TIM1 capture compare interrupt.
  */
void TIM1_CC_IRQHandler(void)
{
 80014e0:	b580      	push	{r7, lr}
 80014e2:	af00      	add	r7, sp, #0

  /* USER CODE END TIM1_CC_IRQn 0 */
  /* USER CODE BEGIN TIM1_CC_IRQn 1 */

  /* USER CODE END TIM1_CC_IRQn 1 */
}
 80014e4:	46c0      	nop			@ (mov r8, r8)
 80014e6:	46bd      	mov	sp, r7
 80014e8:	bd80      	pop	{r7, pc}
	...

080014ec <SPI1_IRQHandler>:

/**
  * @brief This function handles SPI1 interrupt.
  */
void SPI1_IRQHandler(void)
{
 80014ec:	b580      	push	{r7, lr}
 80014ee:	af00      	add	r7, sp, #0
  /* USER CODE BEGIN SPI1_IRQn 0 */
	if(LL_SPI_IsActiveFlag_TXE(SPI1) && LL_SPI_IsEnabledIT_TXE(SPI1))
 80014f0:	4b0f      	ldr	r3, [pc, #60]	@ (8001530 <SPI1_IRQHandler+0x44>)
 80014f2:	0018      	movs	r0, r3
 80014f4:	f7ff ff55 	bl	80013a2 <LL_SPI_IsActiveFlag_TXE>
 80014f8:	1e03      	subs	r3, r0, #0
 80014fa:	d007      	beq.n	800150c <SPI1_IRQHandler+0x20>
 80014fc:	4b0c      	ldr	r3, [pc, #48]	@ (8001530 <SPI1_IRQHandler+0x44>)
 80014fe:	0018      	movs	r0, r3
 8001500:	f7ff ff71 	bl	80013e6 <LL_SPI_IsEnabledIT_TXE>
 8001504:	1e03      	subs	r3, r0, #0
 8001506:	d001      	beq.n	800150c <SPI1_IRQHandler+0x20>
    {
		spi_it_transmit_callback();
 8001508:	f7ff fe94 	bl	8001234 <spi_it_transmit_callback>
	}
	if(LL_SPI_IsActiveFlag_RXNE(SPI1) && LL_SPI_IsEnabledIT_RXNE(SPI1))
 800150c:	4b08      	ldr	r3, [pc, #32]	@ (8001530 <SPI1_IRQHandler+0x44>)
 800150e:	0018      	movs	r0, r3
 8001510:	f7ff ff36 	bl	8001380 <LL_SPI_IsActiveFlag_RXNE>
 8001514:	1e03      	subs	r3, r0, #0
 8001516:	d007      	beq.n	8001528 <SPI1_IRQHandler+0x3c>
 8001518:	4b05      	ldr	r3, [pc, #20]	@ (8001530 <SPI1_IRQHandler+0x44>)
 800151a:	0018      	movs	r0, r3
 800151c:	f7ff ff52 	bl	80013c4 <LL_SPI_IsEnabledIT_RXNE>
 8001520:	1e03      	subs	r3, r0, #0
 8001522:	d001      	beq.n	8001528 <SPI1_IRQHandler+0x3c>
	{
		spi_it_receive_callback();
 8001524:	f7ff fe36 	bl	8001194 <spi_it_receive_callback>
	}
  /* USER CODE END SPI1_IRQn 0 */
  /* USER CODE BEGIN SPI1_IRQn 1 */

  /* USER CODE END SPI1_IRQn 1 */
}
 8001528:	46c0      	nop			@ (mov r8, r8)
 800152a:	46bd      	mov	sp, r7
 800152c:	bd80      	pop	{r7, pc}
 800152e:	46c0      	nop			@ (mov r8, r8)
 8001530:	40013000 	.word	0x40013000

08001534 <LL_EXTI_EnableIT_0_31>:
{
 8001534:	b580      	push	{r7, lr}
 8001536:	b082      	sub	sp, #8
 8001538:	af00      	add	r7, sp, #0
 800153a:	6078      	str	r0, [r7, #4]
  SET_BIT(EXTI->IMR1, ExtiLine);
 800153c:	4a05      	ldr	r2, [pc, #20]	@ (8001554 <LL_EXTI_EnableIT_0_31+0x20>)
 800153e:	2380      	movs	r3, #128	@ 0x80
 8001540:	58d2      	ldr	r2, [r2, r3]
 8001542:	4904      	ldr	r1, [pc, #16]	@ (8001554 <LL_EXTI_EnableIT_0_31+0x20>)
 8001544:	687b      	ldr	r3, [r7, #4]
 8001546:	4313      	orrs	r3, r2
 8001548:	2280      	movs	r2, #128	@ 0x80
 800154a:	508b      	str	r3, [r1, r2]
}
 800154c:	46c0      	nop			@ (mov r8, r8)
 800154e:	46bd      	mov	sp, r7
 8001550:	b002      	add	sp, #8
 8001552:	bd80      	pop	{r7, pc}
 8001554:	40021800 	.word	0x40021800

08001558 <LL_EXTI_ClearFallingFlag_0_31>:
{
 8001558:	b580      	push	{r7, lr}
 800155a:	b082      	sub	sp, #8
 800155c:	af00      	add	r7, sp, #0
 800155e:	6078      	str	r0, [r7, #4]
  WRITE_REG(EXTI->FPR1, ExtiLine);
 8001560:	4b03      	ldr	r3, [pc, #12]	@ (8001570 <LL_EXTI_ClearFallingFlag_0_31+0x18>)
 8001562:	687a      	ldr	r2, [r7, #4]
 8001564:	611a      	str	r2, [r3, #16]
}
 8001566:	46c0      	nop			@ (mov r8, r8)
 8001568:	46bd      	mov	sp, r7
 800156a:	b002      	add	sp, #8
 800156c:	bd80      	pop	{r7, pc}
 800156e:	46c0      	nop			@ (mov r8, r8)
 8001570:	40021800 	.word	0x40021800

08001574 <LL_SPI_Enable>:
{
 8001574:	b580      	push	{r7, lr}
 8001576:	b082      	sub	sp, #8
 8001578:	af00      	add	r7, sp, #0
 800157a:	6078      	str	r0, [r7, #4]
  SET_BIT(SPIx->CR1, SPI_CR1_SPE);
 800157c:	687b      	ldr	r3, [r7, #4]
 800157e:	681b      	ldr	r3, [r3, #0]
 8001580:	2240      	movs	r2, #64	@ 0x40
 8001582:	431a      	orrs	r2, r3
 8001584:	687b      	ldr	r3, [r7, #4]
 8001586:	601a      	str	r2, [r3, #0]
}
 8001588:	46c0      	nop			@ (mov r8, r8)
 800158a:	46bd      	mov	sp, r7
 800158c:	b002      	add	sp, #8
 800158e:	bd80      	pop	{r7, pc}

08001590 <LL_SPI_ReceiveData8>:
{
 8001590:	b580      	push	{r7, lr}
 8001592:	b082      	sub	sp, #8
 8001594:	af00      	add	r7, sp, #0
 8001596:	6078      	str	r0, [r7, #4]
  return (*((__IO uint8_t *)&SPIx->DR));
 8001598:	687b      	ldr	r3, [r7, #4]
 800159a:	330c      	adds	r3, #12
 800159c:	781b      	ldrb	r3, [r3, #0]
 800159e:	b2db      	uxtb	r3, r3
}
 80015a0:	0018      	movs	r0, r3
 80015a2:	46bd      	mov	sp, r7
 80015a4:	b002      	add	sp, #8
 80015a6:	bd80      	pop	{r7, pc}

080015a8 <LL_TIM_EnableCounter>:
{
 80015a8:	b580      	push	{r7, lr}
 80015aa:	b082      	sub	sp, #8
 80015ac:	af00      	add	r7, sp, #0
 80015ae:	6078      	str	r0, [r7, #4]
  SET_BIT(TIMx->CR1, TIM_CR1_CEN);
 80015b0:	687b      	ldr	r3, [r7, #4]
 80015b2:	681b      	ldr	r3, [r3, #0]
 80015b4:	2201      	movs	r2, #1
 80015b6:	431a      	orrs	r2, r3
 80015b8:	687b      	ldr	r3, [r7, #4]
 80015ba:	601a      	str	r2, [r3, #0]
}
 80015bc:	46c0      	nop			@ (mov r8, r8)
 80015be:	46bd      	mov	sp, r7
 80015c0:	b002      	add	sp, #8
 80015c2:	bd80      	pop	{r7, pc}

080015c4 <LL_TIM_DisableCounter>:
{
 80015c4:	b580      	push	{r7, lr}
 80015c6:	b082      	sub	sp, #8
 80015c8:	af00      	add	r7, sp, #0
 80015ca:	6078      	str	r0, [r7, #4]
  CLEAR_BIT(TIMx->CR1, TIM_CR1_CEN);
 80015cc:	687b      	ldr	r3, [r7, #4]
 80015ce:	681b      	ldr	r3, [r3, #0]
 80015d0:	2201      	movs	r2, #1
 80015d2:	4393      	bics	r3, r2
 80015d4:	001a      	movs	r2, r3
 80015d6:	687b      	ldr	r3, [r7, #4]
 80015d8:	601a      	str	r2, [r3, #0]
}
 80015da:	46c0      	nop			@ (mov r8, r8)
 80015dc:	46bd      	mov	sp, r7
 80015de:	b002      	add	sp, #8
 80015e0:	bd80      	pop	{r7, pc}

080015e2 <LL_TIM_CC_EnableChannel>:
{
 80015e2:	b580      	push	{r7, lr}
 80015e4:	b082      	sub	sp, #8
 80015e6:	af00      	add	r7, sp, #0
 80015e8:	6078      	str	r0, [r7, #4]
 80015ea:	6039      	str	r1, [r7, #0]
  SET_BIT(TIMx->CCER, Channels);
 80015ec:	687b      	ldr	r3, [r7, #4]
 80015ee:	6a1a      	ldr	r2, [r3, #32]
 80015f0:	683b      	ldr	r3, [r7, #0]
 80015f2:	431a      	orrs	r2, r3
 80015f4:	687b      	ldr	r3, [r7, #4]
 80015f6:	621a      	str	r2, [r3, #32]
}
 80015f8:	46c0      	nop			@ (mov r8, r8)
 80015fa:	46bd      	mov	sp, r7
 80015fc:	b002      	add	sp, #8
 80015fe:	bd80      	pop	{r7, pc}

08001600 <LL_TIM_EnableAllOutputs>:
{
 8001600:	b580      	push	{r7, lr}
 8001602:	b082      	sub	sp, #8
 8001604:	af00      	add	r7, sp, #0
 8001606:	6078      	str	r0, [r7, #4]
  SET_BIT(TIMx->BDTR, TIM_BDTR_MOE);
 8001608:	687b      	ldr	r3, [r7, #4]
 800160a:	6c5b      	ldr	r3, [r3, #68]	@ 0x44
 800160c:	2280      	movs	r2, #128	@ 0x80
 800160e:	0212      	lsls	r2, r2, #8
 8001610:	431a      	orrs	r2, r3
 8001612:	687b      	ldr	r3, [r7, #4]
 8001614:	645a      	str	r2, [r3, #68]	@ 0x44
}
 8001616:	46c0      	nop			@ (mov r8, r8)
 8001618:	46bd      	mov	sp, r7
 800161a:	b002      	add	sp, #8
 800161c:	bd80      	pop	{r7, pc}

0800161e <LL_TIM_ClearFlag_UPDATE>:
{
 800161e:	b580      	push	{r7, lr}
 8001620:	b082      	sub	sp, #8
 8001622:	af00      	add	r7, sp, #0
 8001624:	6078      	str	r0, [r7, #4]
  WRITE_REG(TIMx->SR, ~(TIM_SR_UIF));
 8001626:	687b      	ldr	r3, [r7, #4]
 8001628:	2202      	movs	r2, #2
 800162a:	4252      	negs	r2, r2
 800162c:	611a      	str	r2, [r3, #16]
}
 800162e:	46c0      	nop			@ (mov r8, r8)
 8001630:	46bd      	mov	sp, r7
 8001632:	b002      	add	sp, #8
 8001634:	bd80      	pop	{r7, pc}

08001636 <LL_TIM_EnableIT_UPDATE>:
  * @rmtoll DIER         UIE           LL_TIM_EnableIT_UPDATE
  * @param  TIMx Timer instance
  * @retval None
  */
__STATIC_INLINE void LL_TIM_EnableIT_UPDATE(TIM_TypeDef *TIMx)
{
 8001636:	b580      	push	{r7, lr}
 8001638:	b082      	sub	sp, #8
 800163a:	af00      	add	r7, sp, #0
 800163c:	6078      	str	r0, [r7, #4]
  SET_BIT(TIMx->DIER, TIM_DIER_UIE);
 800163e:	687b      	ldr	r3, [r7, #4]
 8001640:	68db      	ldr	r3, [r3, #12]
 8001642:	2201      	movs	r2, #1
 8001644:	431a      	orrs	r2, r3
 8001646:	687b      	ldr	r3, [r7, #4]
 8001648:	60da      	str	r2, [r3, #12]
}
 800164a:	46c0      	nop			@ (mov r8, r8)
 800164c:	46bd      	mov	sp, r7
 800164e:	b002      	add	sp, #8
 8001650:	bd80      	pop	{r7, pc}

08001652 <LL_TIM_DisableIT_UPDATE>:
  * @rmtoll DIER         UIE           LL_TIM_DisableIT_UPDATE
  * @param  TIMx Timer instance
  * @retval None
  */
__STATIC_INLINE void LL_TIM_DisableIT_UPDATE(TIM_TypeDef *TIMx)
{
 8001652:	b580      	push	{r7, lr}
 8001654:	b082      	sub	sp, #8
 8001656:	af00      	add	r7, sp, #0
 8001658:	6078      	str	r0, [r7, #4]
  CLEAR_BIT(TIMx->DIER, TIM_DIER_UIE);
 800165a:	687b      	ldr	r3, [r7, #4]
 800165c:	68db      	ldr	r3, [r3, #12]
 800165e:	2201      	movs	r2, #1
 8001660:	4393      	bics	r3, r2
 8001662:	001a      	movs	r2, r3
 8001664:	687b      	ldr	r3, [r7, #4]
 8001666:	60da      	str	r2, [r3, #12]
}
 8001668:	46c0      	nop			@ (mov r8, r8)
 800166a:	46bd      	mov	sp, r7
 800166c:	b002      	add	sp, #8
 800166e:	bd80      	pop	{r7, pc}

08001670 <LL_GPIO_IsInputPinSet>:
{
 8001670:	b580      	push	{r7, lr}
 8001672:	b082      	sub	sp, #8
 8001674:	af00      	add	r7, sp, #0
 8001676:	6078      	str	r0, [r7, #4]
 8001678:	6039      	str	r1, [r7, #0]
  return ((READ_BIT(GPIOx->IDR, PinMask) == (PinMask)) ? 1UL : 0UL);
 800167a:	687b      	ldr	r3, [r7, #4]
 800167c:	691b      	ldr	r3, [r3, #16]
 800167e:	683a      	ldr	r2, [r7, #0]
 8001680:	4013      	ands	r3, r2
 8001682:	683a      	ldr	r2, [r7, #0]
 8001684:	429a      	cmp	r2, r3
 8001686:	d101      	bne.n	800168c <LL_GPIO_IsInputPinSet+0x1c>
 8001688:	2301      	movs	r3, #1
 800168a:	e000      	b.n	800168e <LL_GPIO_IsInputPinSet+0x1e>
 800168c:	2300      	movs	r3, #0
}
 800168e:	0018      	movs	r0, r3
 8001690:	46bd      	mov	sp, r7
 8001692:	b002      	add	sp, #8
 8001694:	bd80      	pop	{r7, pc}

08001696 <LL_GPIO_SetOutputPin>:
{
 8001696:	b580      	push	{r7, lr}
 8001698:	b082      	sub	sp, #8
 800169a:	af00      	add	r7, sp, #0
 800169c:	6078      	str	r0, [r7, #4]
 800169e:	6039      	str	r1, [r7, #0]
  WRITE_REG(GPIOx->BSRR, PinMask);
 80016a0:	687b      	ldr	r3, [r7, #4]
 80016a2:	683a      	ldr	r2, [r7, #0]
 80016a4:	619a      	str	r2, [r3, #24]
}
 80016a6:	46c0      	nop			@ (mov r8, r8)
 80016a8:	46bd      	mov	sp, r7
 80016aa:	b002      	add	sp, #8
 80016ac:	bd80      	pop	{r7, pc}

080016ae <LL_GPIO_ResetOutputPin>:
{
 80016ae:	b580      	push	{r7, lr}
 80016b0:	b082      	sub	sp, #8
 80016b2:	af00      	add	r7, sp, #0
 80016b4:	6078      	str	r0, [r7, #4]
 80016b6:	6039      	str	r1, [r7, #0]
  WRITE_REG(GPIOx->BRR, PinMask);
 80016b8:	687b      	ldr	r3, [r7, #4]
 80016ba:	683a      	ldr	r2, [r7, #0]
 80016bc:	629a      	str	r2, [r3, #40]	@ 0x28
}
 80016be:	46c0      	nop			@ (mov r8, r8)
 80016c0:	46bd      	mov	sp, r7
 80016c2:	b002      	add	sp, #8
 80016c4:	bd80      	pop	{r7, pc}
	...

080016c8 <SystemBoot>:

//
volatile enum file filePlayed = NONE;

void SystemBoot()
{
 80016c8:	b580      	push	{r7, lr}
 80016ca:	af00      	add	r7, sp, #0
	LL_GPIO_ResetOutputPin(LED_GPIO_Port, LED_Pin); //Turn off LED
 80016cc:	23a0      	movs	r3, #160	@ 0xa0
 80016ce:	05db      	lsls	r3, r3, #23
 80016d0:	2110      	movs	r1, #16
 80016d2:	0018      	movs	r0, r3
 80016d4:	f7ff ffeb 	bl	80016ae <LL_GPIO_ResetOutputPin>
	LL_GPIO_ResetOutputPin(NWP_GPIO_Port, NWP_Pin); //FLASH WriteProtect ON
 80016d8:	23a0      	movs	r3, #160	@ 0xa0
 80016da:	05db      	lsls	r3, r3, #23
 80016dc:	2120      	movs	r1, #32
 80016de:	0018      	movs	r0, r3
 80016e0:	f7ff ffe5 	bl	80016ae <LL_GPIO_ResetOutputPin>
	LL_GPIO_SetOutputPin(NSD_GPIO_Port,NSD_Pin); //Turn off amplifier
 80016e4:	2380      	movs	r3, #128	@ 0x80
 80016e6:	01db      	lsls	r3, r3, #7
 80016e8:	4a18      	ldr	r2, [pc, #96]	@ (800174c <SystemBoot+0x84>)
 80016ea:	0019      	movs	r1, r3
 80016ec:	0010      	movs	r0, r2
 80016ee:	f7ff ffd2 	bl	8001696 <LL_GPIO_SetOutputPin>
	LL_GPIO_SetOutputPin(NCS_GPIO_Port,NCS_Pin); //unselect FLASH
 80016f2:	23a0      	movs	r3, #160	@ 0xa0
 80016f4:	05db      	lsls	r3, r3, #23
 80016f6:	2180      	movs	r1, #128	@ 0x80
 80016f8:	0018      	movs	r0, r3
 80016fa:	f7ff ffcc 	bl	8001696 <LL_GPIO_SetOutputPin>

	//PWM configuration
	TIM1->CCR1 = PWM_STARTUP_VAL; //LSB
 80016fe:	4b14      	ldr	r3, [pc, #80]	@ (8001750 <SystemBoot+0x88>)
 8001700:	2280      	movs	r2, #128	@ 0x80
 8001702:	635a      	str	r2, [r3, #52]	@ 0x34
	TIM1->CCR4 = PWM_STARTUP_VAL; //MSB
 8001704:	4b12      	ldr	r3, [pc, #72]	@ (8001750 <SystemBoot+0x88>)
 8001706:	2280      	movs	r2, #128	@ 0x80
 8001708:	641a      	str	r2, [r3, #64]	@ 0x40
	LL_TIM_ClearFlag_UPDATE(TIM1);
 800170a:	4b11      	ldr	r3, [pc, #68]	@ (8001750 <SystemBoot+0x88>)
 800170c:	0018      	movs	r0, r3
 800170e:	f7ff ff86 	bl	800161e <LL_TIM_ClearFlag_UPDATE>
	LL_TIM_EnableAllOutputs(TIM1);
 8001712:	4b0f      	ldr	r3, [pc, #60]	@ (8001750 <SystemBoot+0x88>)
 8001714:	0018      	movs	r0, r3
 8001716:	f7ff ff73 	bl	8001600 <LL_TIM_EnableAllOutputs>
	LL_TIM_CC_EnableChannel(TIM1, LL_TIM_CHANNEL_CH4);
 800171a:	2380      	movs	r3, #128	@ 0x80
 800171c:	015b      	lsls	r3, r3, #5
 800171e:	4a0c      	ldr	r2, [pc, #48]	@ (8001750 <SystemBoot+0x88>)
 8001720:	0019      	movs	r1, r3
 8001722:	0010      	movs	r0, r2
 8001724:	f7ff ff5d 	bl	80015e2 <LL_TIM_CC_EnableChannel>
	LL_TIM_EnableIT_UPDATE(TIM1);
 8001728:	4b09      	ldr	r3, [pc, #36]	@ (8001750 <SystemBoot+0x88>)
 800172a:	0018      	movs	r0, r3
 800172c:	f7ff ff83 	bl	8001636 <LL_TIM_EnableIT_UPDATE>


	//SPI ON
	LL_SPI_Enable(SPI1);
 8001730:	4b08      	ldr	r3, [pc, #32]	@ (8001754 <SystemBoot+0x8c>)
 8001732:	0018      	movs	r0, r3
 8001734:	f7ff ff1e 	bl	8001574 <LL_SPI_Enable>
	(void)LL_SPI_ReceiveData8(SPI1);
 8001738:	4b06      	ldr	r3, [pc, #24]	@ (8001754 <SystemBoot+0x8c>)
 800173a:	0018      	movs	r0, r3
 800173c:	f7ff ff28 	bl	8001590 <LL_SPI_ReceiveData8>
	//Turn off NVIC, BOOT cannot be interrupted
	LL_EXTI_DisableIT_0_31(LL_EXTI_LINE_8);
	LL_EXTI_DisableIT_0_31(LL_EXTI_LINE_11);
	*/

	selectFileToPlay(BOOT);
 8001740:	2001      	movs	r0, #1
 8001742:	f000 f8f3 	bl	800192c <selectFileToPlay>
}
 8001746:	46c0      	nop			@ (mov r8, r8)
 8001748:	46bd      	mov	sp, r7
 800174a:	bd80      	pop	{r7, pc}
 800174c:	50000800 	.word	0x50000800
 8001750:	40012c00 	.word	0x40012c00
 8001754:	40013000 	.word	0x40013000

08001758 <BlinkLED>:

//dodac obsluge jako obiekt to bedzie w miare uniwersalny kod
void BlinkLED(uint8_t blinks)
{
 8001758:	b580      	push	{r7, lr}
 800175a:	b086      	sub	sp, #24
 800175c:	af00      	add	r7, sp, #0
 800175e:	0002      	movs	r2, r0
 8001760:	1dfb      	adds	r3, r7, #7
 8001762:	701a      	strb	r2, [r3, #0]
	for(uint8_t timesBlinked = 0; timesBlinked < blinks; timesBlinked++)
 8001764:	2317      	movs	r3, #23
 8001766:	18fb      	adds	r3, r7, r3
 8001768:	2200      	movs	r2, #0
 800176a:	701a      	strb	r2, [r3, #0]
 800176c:	e025      	b.n	80017ba <BlinkLED+0x62>
	{
		LL_GPIO_SetOutputPin(LED_GPIO_Port, LED_Pin);
 800176e:	23a0      	movs	r3, #160	@ 0xa0
 8001770:	05db      	lsls	r3, r3, #23
 8001772:	2110      	movs	r1, #16
 8001774:	0018      	movs	r0, r3
 8001776:	f7ff ff8e 	bl	8001696 <LL_GPIO_SetOutputPin>
		for(uint32_t indx = 0; indx <= 900000; indx++);
 800177a:	2300      	movs	r3, #0
 800177c:	613b      	str	r3, [r7, #16]
 800177e:	e002      	b.n	8001786 <BlinkLED+0x2e>
 8001780:	693b      	ldr	r3, [r7, #16]
 8001782:	3301      	adds	r3, #1
 8001784:	613b      	str	r3, [r7, #16]
 8001786:	693b      	ldr	r3, [r7, #16]
 8001788:	4a12      	ldr	r2, [pc, #72]	@ (80017d4 <BlinkLED+0x7c>)
 800178a:	4293      	cmp	r3, r2
 800178c:	d9f8      	bls.n	8001780 <BlinkLED+0x28>
		LL_GPIO_ResetOutputPin(LED_GPIO_Port, LED_Pin);
 800178e:	23a0      	movs	r3, #160	@ 0xa0
 8001790:	05db      	lsls	r3, r3, #23
 8001792:	2110      	movs	r1, #16
 8001794:	0018      	movs	r0, r3
 8001796:	f7ff ff8a 	bl	80016ae <LL_GPIO_ResetOutputPin>
		for(uint32_t indx = 0; indx <= 900000; indx++);
 800179a:	2300      	movs	r3, #0
 800179c:	60fb      	str	r3, [r7, #12]
 800179e:	e002      	b.n	80017a6 <BlinkLED+0x4e>
 80017a0:	68fb      	ldr	r3, [r7, #12]
 80017a2:	3301      	adds	r3, #1
 80017a4:	60fb      	str	r3, [r7, #12]
 80017a6:	68fb      	ldr	r3, [r7, #12]
 80017a8:	4a0a      	ldr	r2, [pc, #40]	@ (80017d4 <BlinkLED+0x7c>)
 80017aa:	4293      	cmp	r3, r2
 80017ac:	d9f8      	bls.n	80017a0 <BlinkLED+0x48>
	for(uint8_t timesBlinked = 0; timesBlinked < blinks; timesBlinked++)
 80017ae:	2117      	movs	r1, #23
 80017b0:	187b      	adds	r3, r7, r1
 80017b2:	781a      	ldrb	r2, [r3, #0]
 80017b4:	187b      	adds	r3, r7, r1
 80017b6:	3201      	adds	r2, #1
 80017b8:	701a      	strb	r2, [r3, #0]
 80017ba:	2317      	movs	r3, #23
 80017bc:	18fa      	adds	r2, r7, r3
 80017be:	1dfb      	adds	r3, r7, #7
 80017c0:	7812      	ldrb	r2, [r2, #0]
 80017c2:	781b      	ldrb	r3, [r3, #0]
 80017c4:	429a      	cmp	r2, r3
 80017c6:	d3d2      	bcc.n	800176e <BlinkLED+0x16>
	}
}
 80017c8:	46c0      	nop			@ (mov r8, r8)
 80017ca:	46c0      	nop			@ (mov r8, r8)
 80017cc:	46bd      	mov	sp, r7
 80017ce:	b006      	add	sp, #24
 80017d0:	bd80      	pop	{r7, pc}
 80017d2:	46c0      	nop			@ (mov r8, r8)
 80017d4:	000dbba0 	.word	0x000dbba0

080017d8 <PlayFile>:

void PlayFile(enum file fileToPlay)
{
 80017d8:	b580      	push	{r7, lr}
 80017da:	b082      	sub	sp, #8
 80017dc:	af00      	add	r7, sp, #0
 80017de:	0002      	movs	r2, r0
 80017e0:	1dfb      	adds	r3, r7, #7
 80017e2:	701a      	strb	r2, [r3, #0]
	switch(fileToPlay)
 80017e4:	1dfb      	adds	r3, r7, #7
 80017e6:	781b      	ldrb	r3, [r3, #0]
 80017e8:	2b03      	cmp	r3, #3
 80017ea:	d025      	beq.n	8001838 <PlayFile+0x60>
 80017ec:	dc34      	bgt.n	8001858 <PlayFile+0x80>
 80017ee:	2b01      	cmp	r3, #1
 80017f0:	d002      	beq.n	80017f8 <PlayFile+0x20>
 80017f2:	2b02      	cmp	r3, #2
 80017f4:	d010      	beq.n	8001818 <PlayFile+0x40>
 80017f6:	e02f      	b.n	8001858 <PlayFile+0x80>
	{
		case BOOT:
			currentAddr = BOOTFile.startAddr;
 80017f8:	4b2f      	ldr	r3, [pc, #188]	@ (80018b8 <PlayFile+0xe0>)
 80017fa:	681a      	ldr	r2, [r3, #0]
 80017fc:	4b2f      	ldr	r3, [pc, #188]	@ (80018bc <PlayFile+0xe4>)
 80017fe:	601a      	str	r2, [r3, #0]
			currentFileAddr = BOOTFile.startAddr;
 8001800:	4b2d      	ldr	r3, [pc, #180]	@ (80018b8 <PlayFile+0xe0>)
 8001802:	681a      	ldr	r2, [r3, #0]
 8001804:	4b2e      	ldr	r3, [pc, #184]	@ (80018c0 <PlayFile+0xe8>)
 8001806:	601a      	str	r2, [r3, #0]
			currentFileLength = BOOTFile.length;
 8001808:	4b2b      	ldr	r3, [pc, #172]	@ (80018b8 <PlayFile+0xe0>)
 800180a:	685a      	ldr	r2, [r3, #4]
 800180c:	4b2d      	ldr	r3, [pc, #180]	@ (80018c4 <PlayFile+0xec>)
 800180e:	601a      	str	r2, [r3, #0]
			filePlayed = BOOT;
 8001810:	4b2d      	ldr	r3, [pc, #180]	@ (80018c8 <PlayFile+0xf0>)
 8001812:	2201      	movs	r2, #1
 8001814:	701a      	strb	r2, [r3, #0]
			break;
 8001816:	e026      	b.n	8001866 <PlayFile+0x8e>
		case CLICK:
			currentAddr = CLICKFile.startAddr;
 8001818:	4b2c      	ldr	r3, [pc, #176]	@ (80018cc <PlayFile+0xf4>)
 800181a:	681a      	ldr	r2, [r3, #0]
 800181c:	4b27      	ldr	r3, [pc, #156]	@ (80018bc <PlayFile+0xe4>)
 800181e:	601a      	str	r2, [r3, #0]
			currentFileAddr = CLICKFile.startAddr;
 8001820:	4b2a      	ldr	r3, [pc, #168]	@ (80018cc <PlayFile+0xf4>)
 8001822:	681a      	ldr	r2, [r3, #0]
 8001824:	4b26      	ldr	r3, [pc, #152]	@ (80018c0 <PlayFile+0xe8>)
 8001826:	601a      	str	r2, [r3, #0]
			currentFileLength = CLICKFile.length;
 8001828:	4b28      	ldr	r3, [pc, #160]	@ (80018cc <PlayFile+0xf4>)
 800182a:	685a      	ldr	r2, [r3, #4]
 800182c:	4b25      	ldr	r3, [pc, #148]	@ (80018c4 <PlayFile+0xec>)
 800182e:	601a      	str	r2, [r3, #0]
			filePlayed = CLICK;
 8001830:	4b25      	ldr	r3, [pc, #148]	@ (80018c8 <PlayFile+0xf0>)
 8001832:	2202      	movs	r2, #2
 8001834:	701a      	strb	r2, [r3, #0]
			break;
 8001836:	e016      	b.n	8001866 <PlayFile+0x8e>
		case SHOOT:
			currentAddr = SHOOTFile.startAddr;
 8001838:	4b25      	ldr	r3, [pc, #148]	@ (80018d0 <PlayFile+0xf8>)
 800183a:	681a      	ldr	r2, [r3, #0]
 800183c:	4b1f      	ldr	r3, [pc, #124]	@ (80018bc <PlayFile+0xe4>)
 800183e:	601a      	str	r2, [r3, #0]
			currentFileAddr = SHOOTFile.startAddr;
 8001840:	4b23      	ldr	r3, [pc, #140]	@ (80018d0 <PlayFile+0xf8>)
 8001842:	681a      	ldr	r2, [r3, #0]
 8001844:	4b1e      	ldr	r3, [pc, #120]	@ (80018c0 <PlayFile+0xe8>)
 8001846:	601a      	str	r2, [r3, #0]
			currentFileLength = SHOOTFile.length;
 8001848:	4b21      	ldr	r3, [pc, #132]	@ (80018d0 <PlayFile+0xf8>)
 800184a:	685a      	ldr	r2, [r3, #4]
 800184c:	4b1d      	ldr	r3, [pc, #116]	@ (80018c4 <PlayFile+0xec>)
 800184e:	601a      	str	r2, [r3, #0]
			filePlayed = SHOOT;
 8001850:	4b1d      	ldr	r3, [pc, #116]	@ (80018c8 <PlayFile+0xf0>)
 8001852:	2203      	movs	r2, #3
 8001854:	701a      	strb	r2, [r3, #0]
			break;
 8001856:	e006      	b.n	8001866 <PlayFile+0x8e>
		default:
			while(1) LL_GPIO_SetOutputPin(LED_GPIO_Port, LED_Pin); //error break
 8001858:	23a0      	movs	r3, #160	@ 0xa0
 800185a:	05db      	lsls	r3, r3, #23
 800185c:	2110      	movs	r1, #16
 800185e:	0018      	movs	r0, r3
 8001860:	f7ff ff19 	bl	8001696 <LL_GPIO_SetOutputPin>
 8001864:	e7f8      	b.n	8001858 <PlayFile+0x80>
			break;
	}

	GetEmptyBuffer();
 8001866:	f7fe fcf5 	bl	8000254 <GetEmptyBuffer>

	LL_SPI_Enable(SPI1);
 800186a:	4b1a      	ldr	r3, [pc, #104]	@ (80018d4 <PlayFile+0xfc>)
 800186c:	0018      	movs	r0, r3
 800186e:	f7ff fe81 	bl	8001574 <LL_SPI_Enable>
	FAST_READ_IT(currentAddr,BUFFER_SIZE);
 8001872:	4b12      	ldr	r3, [pc, #72]	@ (80018bc <PlayFile+0xe4>)
 8001874:	681b      	ldr	r3, [r3, #0]
 8001876:	2280      	movs	r2, #128	@ 0x80
 8001878:	00d2      	lsls	r2, r2, #3
 800187a:	0011      	movs	r1, r2
 800187c:	0018      	movs	r0, r3
 800187e:	f7ff fd1d 	bl	80012bc <FAST_READ_IT>

	while(!IsAnyBufferReady());
 8001882:	46c0      	nop			@ (mov r8, r8)
 8001884:	f7fe fd58 	bl	8000338 <IsAnyBufferReady>
 8001888:	1e03      	subs	r3, r0, #0
 800188a:	d0fb      	beq.n	8001884 <PlayFile+0xac>

	GetReadyBuffer();
 800188c:	f7fe fd6e 	bl	800036c <GetReadyBuffer>
	LL_GPIO_SetOutputPin(NSD_GPIO_Port, NSD_Pin); // wlacz wzmacniacz
 8001890:	2380      	movs	r3, #128	@ 0x80
 8001892:	01db      	lsls	r3, r3, #7
 8001894:	4a10      	ldr	r2, [pc, #64]	@ (80018d8 <PlayFile+0x100>)
 8001896:	0019      	movs	r1, r3
 8001898:	0010      	movs	r0, r2
 800189a:	f7ff fefc 	bl	8001696 <LL_GPIO_SetOutputPin>
	LL_TIM_EnableIT_UPDATE(TIM1);
 800189e:	4b0f      	ldr	r3, [pc, #60]	@ (80018dc <PlayFile+0x104>)
 80018a0:	0018      	movs	r0, r3
 80018a2:	f7ff fec8 	bl	8001636 <LL_TIM_EnableIT_UPDATE>
	LL_TIM_EnableCounter(TIM1); //wlacz timer
 80018a6:	4b0d      	ldr	r3, [pc, #52]	@ (80018dc <PlayFile+0x104>)
 80018a8:	0018      	movs	r0, r3
 80018aa:	f7ff fe7d 	bl	80015a8 <LL_TIM_EnableCounter>
}
 80018ae:	46c0      	nop			@ (mov r8, r8)
 80018b0:	46bd      	mov	sp, r7
 80018b2:	b002      	add	sp, #8
 80018b4:	bd80      	pop	{r7, pc}
 80018b6:	46c0      	nop			@ (mov r8, r8)
 80018b8:	20000000 	.word	0x20000000
 80018bc:	20000854 	.word	0x20000854
 80018c0:	20000858 	.word	0x20000858
 80018c4:	2000085c 	.word	0x2000085c
 80018c8:	20000860 	.word	0x20000860
 80018cc:	20000008 	.word	0x20000008
 80018d0:	20000010 	.word	0x20000010
 80018d4:	40013000 	.word	0x40013000
 80018d8:	50000800 	.word	0x50000800
 80018dc:	40012c00 	.word	0x40012c00

080018e0 <TimerRoutine>:
volatile uint8_t dataToPlay = 0;
volatile uint8_t dataQueue = 0;;


void TimerRoutine()
{
 80018e0:	b580      	push	{r7, lr}
 80018e2:	af00      	add	r7, sp, #0
	TIM1 -> CCR4 = dataToPlay;
 80018e4:	4b0e      	ldr	r3, [pc, #56]	@ (8001920 <TimerRoutine+0x40>)
 80018e6:	781b      	ldrb	r3, [r3, #0]
 80018e8:	b2da      	uxtb	r2, r3
 80018ea:	4b0e      	ldr	r3, [pc, #56]	@ (8001924 <TimerRoutine+0x44>)
 80018ec:	641a      	str	r2, [r3, #64]	@ 0x40
	PWM_repetition++;
 80018ee:	4b0e      	ldr	r3, [pc, #56]	@ (8001928 <TimerRoutine+0x48>)
 80018f0:	781b      	ldrb	r3, [r3, #0]
 80018f2:	b2db      	uxtb	r3, r3
 80018f4:	3301      	adds	r3, #1
 80018f6:	b2da      	uxtb	r2, r3
 80018f8:	4b0b      	ldr	r3, [pc, #44]	@ (8001928 <TimerRoutine+0x48>)
 80018fa:	701a      	strb	r2, [r3, #0]

	if(PWM_repetition >= REPETITIONS)
 80018fc:	4b0a      	ldr	r3, [pc, #40]	@ (8001928 <TimerRoutine+0x48>)
 80018fe:	781b      	ldrb	r3, [r3, #0]
 8001900:	b2db      	uxtb	r3, r3
 8001902:	2b09      	cmp	r3, #9
 8001904:	d908      	bls.n	8001918 <TimerRoutine+0x38>
	{
		dataToPlay = BufferTake();
 8001906:	f7fe fd51 	bl	80003ac <BufferTake>
 800190a:	0003      	movs	r3, r0
 800190c:	001a      	movs	r2, r3
 800190e:	4b04      	ldr	r3, [pc, #16]	@ (8001920 <TimerRoutine+0x40>)
 8001910:	701a      	strb	r2, [r3, #0]
		PWM_repetition = 0;
 8001912:	4b05      	ldr	r3, [pc, #20]	@ (8001928 <TimerRoutine+0x48>)
 8001914:	2200      	movs	r2, #0
 8001916:	701a      	strb	r2, [r3, #0]
	}
}
 8001918:	46c0      	nop			@ (mov r8, r8)
 800191a:	46bd      	mov	sp, r7
 800191c:	bd80      	pop	{r7, pc}
 800191e:	46c0      	nop			@ (mov r8, r8)
 8001920:	20000862 	.word	0x20000862
 8001924:	40012c00 	.word	0x40012c00
 8001928:	20000861 	.word	0x20000861

0800192c <selectFileToPlay>:

void selectFileToPlay(enum file fileToPlay)
{
 800192c:	b580      	push	{r7, lr}
 800192e:	b082      	sub	sp, #8
 8001930:	af00      	add	r7, sp, #0
 8001932:	0002      	movs	r2, r0
 8001934:	1dfb      	adds	r3, r7, #7
 8001936:	701a      	strb	r2, [r3, #0]
	switch(fileToPlay)
 8001938:	1dfb      	adds	r3, r7, #7
 800193a:	781b      	ldrb	r3, [r3, #0]
 800193c:	2b03      	cmp	r3, #3
 800193e:	d005      	beq.n	800194c <selectFileToPlay+0x20>
 8001940:	dc1f      	bgt.n	8001982 <selectFileToPlay+0x56>
 8001942:	2b01      	cmp	r3, #1
 8001944:	d019      	beq.n	800197a <selectFileToPlay+0x4e>
 8001946:	2b02      	cmp	r3, #2
 8001948:	d009      	beq.n	800195e <selectFileToPlay+0x32>
 800194a:	e01a      	b.n	8001982 <selectFileToPlay+0x56>
	{
		case SHOOT:
			if(filePlayed == SHOOT) break;
 800194c:	4b13      	ldr	r3, [pc, #76]	@ (800199c <selectFileToPlay+0x70>)
 800194e:	781b      	ldrb	r3, [r3, #0]
 8001950:	b2db      	uxtb	r3, r3
 8001952:	2b03      	cmp	r3, #3
 8001954:	d01c      	beq.n	8001990 <selectFileToPlay+0x64>
			PlayFile(SHOOT);
 8001956:	2003      	movs	r0, #3
 8001958:	f7ff ff3e 	bl	80017d8 <PlayFile>
			break;
 800195c:	e019      	b.n	8001992 <selectFileToPlay+0x66>
		case CLICK:
			if(filePlayed == SHOOT || filePlayed == CLICK) break;
 800195e:	4b0f      	ldr	r3, [pc, #60]	@ (800199c <selectFileToPlay+0x70>)
 8001960:	781b      	ldrb	r3, [r3, #0]
 8001962:	b2db      	uxtb	r3, r3
 8001964:	2b03      	cmp	r3, #3
 8001966:	d014      	beq.n	8001992 <selectFileToPlay+0x66>
 8001968:	4b0c      	ldr	r3, [pc, #48]	@ (800199c <selectFileToPlay+0x70>)
 800196a:	781b      	ldrb	r3, [r3, #0]
 800196c:	b2db      	uxtb	r3, r3
 800196e:	2b02      	cmp	r3, #2
 8001970:	d00f      	beq.n	8001992 <selectFileToPlay+0x66>
			PlayFile(CLICK);
 8001972:	2002      	movs	r0, #2
 8001974:	f7ff ff30 	bl	80017d8 <PlayFile>
			break;
 8001978:	e00b      	b.n	8001992 <selectFileToPlay+0x66>
		case BOOT:
			PlayFile(BOOT);
 800197a:	2001      	movs	r0, #1
 800197c:	f7ff ff2c 	bl	80017d8 <PlayFile>
			break;
 8001980:	e007      	b.n	8001992 <selectFileToPlay+0x66>
		default:
			//BLAD nie powinno tak byc
			while(1) LL_GPIO_SetOutputPin(LED_GPIO_Port, LED_Pin);
 8001982:	23a0      	movs	r3, #160	@ 0xa0
 8001984:	05db      	lsls	r3, r3, #23
 8001986:	2110      	movs	r1, #16
 8001988:	0018      	movs	r0, r3
 800198a:	f7ff fe84 	bl	8001696 <LL_GPIO_SetOutputPin>
 800198e:	e7f8      	b.n	8001982 <selectFileToPlay+0x56>
			if(filePlayed == SHOOT) break;
 8001990:	46c0      	nop			@ (mov r8, r8)
			break;
	}
}
 8001992:	46c0      	nop			@ (mov r8, r8)
 8001994:	46bd      	mov	sp, r7
 8001996:	b002      	add	sp, #8
 8001998:	bd80      	pop	{r7, pc}
 800199a:	46c0      	nop			@ (mov r8, r8)
 800199c:	20000860 	.word	0x20000860

080019a0 <goIdle>:

void goIdle()
{
 80019a0:	b580      	push	{r7, lr}
 80019a2:	b082      	sub	sp, #8
 80019a4:	af00      	add	r7, sp, #0
	LL_TIM_DisableIT_UPDATE(TIM1);
 80019a6:	4b13      	ldr	r3, [pc, #76]	@ (80019f4 <goIdle+0x54>)
 80019a8:	0018      	movs	r0, r3
 80019aa:	f7ff fe52 	bl	8001652 <LL_TIM_DisableIT_UPDATE>
	TIM1 -> CCR4 = 0x55;
 80019ae:	4b11      	ldr	r3, [pc, #68]	@ (80019f4 <goIdle+0x54>)
 80019b0:	2255      	movs	r2, #85	@ 0x55
 80019b2:	641a      	str	r2, [r3, #64]	@ 0x40
	for(uint32_t delay = 0; delay < 120000; delay++);
 80019b4:	2300      	movs	r3, #0
 80019b6:	607b      	str	r3, [r7, #4]
 80019b8:	e002      	b.n	80019c0 <goIdle+0x20>
 80019ba:	687b      	ldr	r3, [r7, #4]
 80019bc:	3301      	adds	r3, #1
 80019be:	607b      	str	r3, [r7, #4]
 80019c0:	687b      	ldr	r3, [r7, #4]
 80019c2:	4a0d      	ldr	r2, [pc, #52]	@ (80019f8 <goIdle+0x58>)
 80019c4:	4293      	cmp	r3, r2
 80019c6:	d9f8      	bls.n	80019ba <goIdle+0x1a>
	LL_TIM_DisableCounter(TIM1);
 80019c8:	4b0a      	ldr	r3, [pc, #40]	@ (80019f4 <goIdle+0x54>)
 80019ca:	0018      	movs	r0, r3
 80019cc:	f7ff fdfa 	bl	80015c4 <LL_TIM_DisableCounter>
	LL_GPIO_ResetOutputPin(NSD_GPIO_Port, NSD_Pin);
 80019d0:	2380      	movs	r3, #128	@ 0x80
 80019d2:	01db      	lsls	r3, r3, #7
 80019d4:	4a09      	ldr	r2, [pc, #36]	@ (80019fc <goIdle+0x5c>)
 80019d6:	0019      	movs	r1, r3
 80019d8:	0010      	movs	r0, r2
 80019da:	f7ff fe68 	bl	80016ae <LL_GPIO_ResetOutputPin>
	currentAddr = 0;
 80019de:	4b08      	ldr	r3, [pc, #32]	@ (8001a00 <goIdle+0x60>)
 80019e0:	2200      	movs	r2, #0
 80019e2:	601a      	str	r2, [r3, #0]
	filePlayed = NONE;
 80019e4:	4b07      	ldr	r3, [pc, #28]	@ (8001a04 <goIdle+0x64>)
 80019e6:	2200      	movs	r2, #0
 80019e8:	701a      	strb	r2, [r3, #0]
	//ClearBuffers();
}
 80019ea:	46c0      	nop			@ (mov r8, r8)
 80019ec:	46bd      	mov	sp, r7
 80019ee:	b002      	add	sp, #8
 80019f0:	bd80      	pop	{r7, pc}
 80019f2:	46c0      	nop			@ (mov r8, r8)
 80019f4:	40012c00 	.word	0x40012c00
 80019f8:	0001d4bf 	.word	0x0001d4bf
 80019fc:	50000800 	.word	0x50000800
 8001a00:	20000854 	.word	0x20000854
 8001a04:	20000860 	.word	0x20000860

08001a08 <NewMain>:

void NewMain()
{
 8001a08:	b580      	push	{r7, lr}
 8001a0a:	b082      	sub	sp, #8
 8001a0c:	af00      	add	r7, sp, #0
	if(currentAddr >= BOOTAddr + BOOTLength)
 8001a0e:	4b38      	ldr	r3, [pc, #224]	@ (8001af0 <NewMain+0xe8>)
 8001a10:	681b      	ldr	r3, [r3, #0]
 8001a12:	4a38      	ldr	r2, [pc, #224]	@ (8001af4 <NewMain+0xec>)
 8001a14:	4293      	cmp	r3, r2
 8001a16:	d918      	bls.n	8001a4a <NewMain+0x42>
	{
		goIdle();
 8001a18:	f7ff ffc2 	bl	80019a0 <goIdle>

		LL_EXTI_ClearFallingFlag_0_31(LL_EXTI_LINE_8);
 8001a1c:	2380      	movs	r3, #128	@ 0x80
 8001a1e:	005b      	lsls	r3, r3, #1
 8001a20:	0018      	movs	r0, r3
 8001a22:	f7ff fd99 	bl	8001558 <LL_EXTI_ClearFallingFlag_0_31>
		LL_EXTI_ClearFallingFlag_0_31(LL_EXTI_LINE_11);
 8001a26:	2380      	movs	r3, #128	@ 0x80
 8001a28:	011b      	lsls	r3, r3, #4
 8001a2a:	0018      	movs	r0, r3
 8001a2c:	f7ff fd94 	bl	8001558 <LL_EXTI_ClearFallingFlag_0_31>

		LL_EXTI_EnableIT_0_31(LL_EXTI_LINE_8);
 8001a30:	2380      	movs	r3, #128	@ 0x80
 8001a32:	005b      	lsls	r3, r3, #1
 8001a34:	0018      	movs	r0, r3
 8001a36:	f7ff fd7d 	bl	8001534 <LL_EXTI_EnableIT_0_31>
		LL_EXTI_EnableIT_0_31(LL_EXTI_LINE_11);
 8001a3a:	2380      	movs	r3, #128	@ 0x80
 8001a3c:	011b      	lsls	r3, r3, #4
 8001a3e:	0018      	movs	r0, r3
 8001a40:	f7ff fd78 	bl	8001534 <LL_EXTI_EnableIT_0_31>

		BlinkLED(3);
 8001a44:	2003      	movs	r0, #3
 8001a46:	f7ff fe87 	bl	8001758 <BlinkLED>
	}
	if((currentAddr - currentFileAddr) >= currentFileLength)
 8001a4a:	4b29      	ldr	r3, [pc, #164]	@ (8001af0 <NewMain+0xe8>)
 8001a4c:	681a      	ldr	r2, [r3, #0]
 8001a4e:	4b2a      	ldr	r3, [pc, #168]	@ (8001af8 <NewMain+0xf0>)
 8001a50:	681b      	ldr	r3, [r3, #0]
 8001a52:	1ad2      	subs	r2, r2, r3
 8001a54:	4b29      	ldr	r3, [pc, #164]	@ (8001afc <NewMain+0xf4>)
 8001a56:	681b      	ldr	r3, [r3, #0]
 8001a58:	429a      	cmp	r2, r3
 8001a5a:	d30e      	bcc.n	8001a7a <NewMain+0x72>
	{
		goIdle();
 8001a5c:	f7ff ffa0 	bl	80019a0 <goIdle>
		if(!LL_GPIO_IsInputPinSet(Trigger_GPIO_Port, Trigger_Pin)) selectFileToPlay(SHOOT);
 8001a60:	2380      	movs	r3, #128	@ 0x80
 8001a62:	005a      	lsls	r2, r3, #1
 8001a64:	23a0      	movs	r3, #160	@ 0xa0
 8001a66:	05db      	lsls	r3, r3, #23
 8001a68:	0011      	movs	r1, r2
 8001a6a:	0018      	movs	r0, r3
 8001a6c:	f7ff fe00 	bl	8001670 <LL_GPIO_IsInputPinSet>
 8001a70:	1e03      	subs	r3, r0, #0
 8001a72:	d102      	bne.n	8001a7a <NewMain+0x72>
 8001a74:	2003      	movs	r0, #3
 8001a76:	f7ff ff59 	bl	800192c <selectFileToPlay>
	}

	if(filePlayed != NONE)
 8001a7a:	4b21      	ldr	r3, [pc, #132]	@ (8001b00 <NewMain+0xf8>)
 8001a7c:	781b      	ldrb	r3, [r3, #0]
 8001a7e:	b2db      	uxtb	r3, r3
 8001a80:	2b00      	cmp	r3, #0
 8001a82:	d030      	beq.n	8001ae6 <NewMain+0xde>
	{
	uint16_t size;

	if(IsAnyBufferEmpty())
 8001a84:	f7fe fbcc 	bl	8000220 <IsAnyBufferEmpty>
 8001a88:	1e03      	subs	r3, r0, #0
 8001a8a:	d02c      	beq.n	8001ae6 <NewMain+0xde>
		{
			GetEmptyBuffer();
 8001a8c:	f7fe fbe2 	bl	8000254 <GetEmptyBuffer>

			LL_SPI_Enable(SPI1);
 8001a90:	4b1c      	ldr	r3, [pc, #112]	@ (8001b04 <NewMain+0xfc>)
 8001a92:	0018      	movs	r0, r3
 8001a94:	f7ff fd6e 	bl	8001574 <LL_SPI_Enable>
			if(currentFileLength - (currentAddr - currentFileAddr) >= BUFFER_SIZE) size = BUFFER_SIZE;
 8001a98:	4b17      	ldr	r3, [pc, #92]	@ (8001af8 <NewMain+0xf0>)
 8001a9a:	681a      	ldr	r2, [r3, #0]
 8001a9c:	4b14      	ldr	r3, [pc, #80]	@ (8001af0 <NewMain+0xe8>)
 8001a9e:	681b      	ldr	r3, [r3, #0]
 8001aa0:	1ad2      	subs	r2, r2, r3
 8001aa2:	4b16      	ldr	r3, [pc, #88]	@ (8001afc <NewMain+0xf4>)
 8001aa4:	681b      	ldr	r3, [r3, #0]
 8001aa6:	18d2      	adds	r2, r2, r3
 8001aa8:	2380      	movs	r3, #128	@ 0x80
 8001aaa:	00db      	lsls	r3, r3, #3
 8001aac:	429a      	cmp	r2, r3
 8001aae:	d304      	bcc.n	8001aba <NewMain+0xb2>
 8001ab0:	1dbb      	adds	r3, r7, #6
 8001ab2:	2280      	movs	r2, #128	@ 0x80
 8001ab4:	00d2      	lsls	r2, r2, #3
 8001ab6:	801a      	strh	r2, [r3, #0]
 8001ab8:	e00d      	b.n	8001ad6 <NewMain+0xce>
			else size = currentFileLength + currentFileAddr - currentAddr;
 8001aba:	4b10      	ldr	r3, [pc, #64]	@ (8001afc <NewMain+0xf4>)
 8001abc:	681b      	ldr	r3, [r3, #0]
 8001abe:	b29a      	uxth	r2, r3
 8001ac0:	4b0d      	ldr	r3, [pc, #52]	@ (8001af8 <NewMain+0xf0>)
 8001ac2:	681b      	ldr	r3, [r3, #0]
 8001ac4:	b29b      	uxth	r3, r3
 8001ac6:	18d3      	adds	r3, r2, r3
 8001ac8:	b299      	uxth	r1, r3
 8001aca:	4b09      	ldr	r3, [pc, #36]	@ (8001af0 <NewMain+0xe8>)
 8001acc:	681b      	ldr	r3, [r3, #0]
 8001ace:	b29a      	uxth	r2, r3
 8001ad0:	1dbb      	adds	r3, r7, #6
 8001ad2:	1a8a      	subs	r2, r1, r2
 8001ad4:	801a      	strh	r2, [r3, #0]
			FAST_READ_IT(currentAddr,size);
 8001ad6:	4b06      	ldr	r3, [pc, #24]	@ (8001af0 <NewMain+0xe8>)
 8001ad8:	681a      	ldr	r2, [r3, #0]
 8001ada:	1dbb      	adds	r3, r7, #6
 8001adc:	881b      	ldrh	r3, [r3, #0]
 8001ade:	0019      	movs	r1, r3
 8001ae0:	0010      	movs	r0, r2
 8001ae2:	f7ff fbeb 	bl	80012bc <FAST_READ_IT>
		}
	}
}
 8001ae6:	46c0      	nop			@ (mov r8, r8)
 8001ae8:	46bd      	mov	sp, r7
 8001aea:	b002      	add	sp, #8
 8001aec:	bd80      	pop	{r7, pc}
 8001aee:	46c0      	nop			@ (mov r8, r8)
 8001af0:	20000854 	.word	0x20000854
 8001af4:	0000b22f 	.word	0x0000b22f
 8001af8:	20000858 	.word	0x20000858
 8001afc:	2000085c 	.word	0x2000085c
 8001b00:	20000860 	.word	0x20000860
 8001b04:	40013000 	.word	0x40013000

08001b08 <SystemInit>:
  * @brief  Setup the microcontroller system.
  * @param  None
  * @retval None
  */
void SystemInit(void)
{
 8001b08:	b580      	push	{r7, lr}
 8001b0a:	af00      	add	r7, sp, #0
  
  /* Configure the Vector Table location add offset address ------------------*/
#ifdef VECT_TAB_SRAM
  SCB->VTOR = SRAM_BASE | VECT_TAB_OFFSET; /* Vector Table Relocation in Internal SRAM */
#else
  SCB->VTOR = FLASH_BASE | VECT_TAB_OFFSET; /* Vector Table Relocation in Internal FLASH */
 8001b0c:	4b03      	ldr	r3, [pc, #12]	@ (8001b1c <SystemInit+0x14>)
 8001b0e:	2280      	movs	r2, #128	@ 0x80
 8001b10:	0512      	lsls	r2, r2, #20
 8001b12:	609a      	str	r2, [r3, #8]
#endif
}
 8001b14:	46c0      	nop			@ (mov r8, r8)
 8001b16:	46bd      	mov	sp, r7
 8001b18:	bd80      	pop	{r7, pc}
 8001b1a:	46c0      	nop			@ (mov r8, r8)
 8001b1c:	e000ed00 	.word	0xe000ed00

08001b20 <__NVIC_EnableIRQ>:
{
 8001b20:	b580      	push	{r7, lr}
 8001b22:	b082      	sub	sp, #8
 8001b24:	af00      	add	r7, sp, #0
 8001b26:	0002      	movs	r2, r0
 8001b28:	1dfb      	adds	r3, r7, #7
 8001b2a:	701a      	strb	r2, [r3, #0]
  if ((int32_t)(IRQn) >= 0)
 8001b2c:	1dfb      	adds	r3, r7, #7
 8001b2e:	781b      	ldrb	r3, [r3, #0]
 8001b30:	2b7f      	cmp	r3, #127	@ 0x7f
 8001b32:	d809      	bhi.n	8001b48 <__NVIC_EnableIRQ+0x28>
    NVIC->ISER[0U] = (uint32_t)(1UL << (((uint32_t)IRQn) & 0x1FUL));
 8001b34:	1dfb      	adds	r3, r7, #7
 8001b36:	781b      	ldrb	r3, [r3, #0]
 8001b38:	001a      	movs	r2, r3
 8001b3a:	231f      	movs	r3, #31
 8001b3c:	401a      	ands	r2, r3
 8001b3e:	4b04      	ldr	r3, [pc, #16]	@ (8001b50 <__NVIC_EnableIRQ+0x30>)
 8001b40:	2101      	movs	r1, #1
 8001b42:	4091      	lsls	r1, r2
 8001b44:	000a      	movs	r2, r1
 8001b46:	601a      	str	r2, [r3, #0]
}
 8001b48:	46c0      	nop			@ (mov r8, r8)
 8001b4a:	46bd      	mov	sp, r7
 8001b4c:	b002      	add	sp, #8
 8001b4e:	bd80      	pop	{r7, pc}
 8001b50:	e000e100 	.word	0xe000e100

08001b54 <__NVIC_SetPriority>:
{
 8001b54:	b590      	push	{r4, r7, lr}
 8001b56:	b083      	sub	sp, #12
 8001b58:	af00      	add	r7, sp, #0
 8001b5a:	0002      	movs	r2, r0
 8001b5c:	6039      	str	r1, [r7, #0]
 8001b5e:	1dfb      	adds	r3, r7, #7
 8001b60:	701a      	strb	r2, [r3, #0]
  if ((int32_t)(IRQn) >= 0)
 8001b62:	1dfb      	adds	r3, r7, #7
 8001b64:	781b      	ldrb	r3, [r3, #0]
 8001b66:	2b7f      	cmp	r3, #127	@ 0x7f
 8001b68:	d828      	bhi.n	8001bbc <__NVIC_SetPriority+0x68>
    NVIC->IP[_IP_IDX(IRQn)]  = ((uint32_t)(NVIC->IP[_IP_IDX(IRQn)]  & ~(0xFFUL << _BIT_SHIFT(IRQn))) |
 8001b6a:	4a2f      	ldr	r2, [pc, #188]	@ (8001c28 <__NVIC_SetPriority+0xd4>)
 8001b6c:	1dfb      	adds	r3, r7, #7
 8001b6e:	781b      	ldrb	r3, [r3, #0]
 8001b70:	b25b      	sxtb	r3, r3
 8001b72:	089b      	lsrs	r3, r3, #2
 8001b74:	33c0      	adds	r3, #192	@ 0xc0
 8001b76:	009b      	lsls	r3, r3, #2
 8001b78:	589b      	ldr	r3, [r3, r2]
 8001b7a:	1dfa      	adds	r2, r7, #7
 8001b7c:	7812      	ldrb	r2, [r2, #0]
 8001b7e:	0011      	movs	r1, r2
 8001b80:	2203      	movs	r2, #3
 8001b82:	400a      	ands	r2, r1
 8001b84:	00d2      	lsls	r2, r2, #3
 8001b86:	21ff      	movs	r1, #255	@ 0xff
 8001b88:	4091      	lsls	r1, r2
 8001b8a:	000a      	movs	r2, r1
 8001b8c:	43d2      	mvns	r2, r2
 8001b8e:	401a      	ands	r2, r3
 8001b90:	0011      	movs	r1, r2
       (((priority << (8U - __NVIC_PRIO_BITS)) & (uint32_t)0xFFUL) << _BIT_SHIFT(IRQn)));
 8001b92:	683b      	ldr	r3, [r7, #0]
 8001b94:	019b      	lsls	r3, r3, #6
 8001b96:	22ff      	movs	r2, #255	@ 0xff
 8001b98:	401a      	ands	r2, r3
 8001b9a:	1dfb      	adds	r3, r7, #7
 8001b9c:	781b      	ldrb	r3, [r3, #0]
 8001b9e:	0018      	movs	r0, r3
 8001ba0:	2303      	movs	r3, #3
 8001ba2:	4003      	ands	r3, r0
 8001ba4:	00db      	lsls	r3, r3, #3
 8001ba6:	409a      	lsls	r2, r3
    NVIC->IP[_IP_IDX(IRQn)]  = ((uint32_t)(NVIC->IP[_IP_IDX(IRQn)]  & ~(0xFFUL << _BIT_SHIFT(IRQn))) |
 8001ba8:	481f      	ldr	r0, [pc, #124]	@ (8001c28 <__NVIC_SetPriority+0xd4>)
 8001baa:	1dfb      	adds	r3, r7, #7
 8001bac:	781b      	ldrb	r3, [r3, #0]
 8001bae:	b25b      	sxtb	r3, r3
 8001bb0:	089b      	lsrs	r3, r3, #2
 8001bb2:	430a      	orrs	r2, r1
 8001bb4:	33c0      	adds	r3, #192	@ 0xc0
 8001bb6:	009b      	lsls	r3, r3, #2
 8001bb8:	501a      	str	r2, [r3, r0]
}
 8001bba:	e031      	b.n	8001c20 <__NVIC_SetPriority+0xcc>
    SCB->SHP[_SHP_IDX(IRQn)] = ((uint32_t)(SCB->SHP[_SHP_IDX(IRQn)] & ~(0xFFUL << _BIT_SHIFT(IRQn))) |
 8001bbc:	4a1b      	ldr	r2, [pc, #108]	@ (8001c2c <__NVIC_SetPriority+0xd8>)
 8001bbe:	1dfb      	adds	r3, r7, #7
 8001bc0:	781b      	ldrb	r3, [r3, #0]
 8001bc2:	0019      	movs	r1, r3
 8001bc4:	230f      	movs	r3, #15
 8001bc6:	400b      	ands	r3, r1
 8001bc8:	3b08      	subs	r3, #8
 8001bca:	089b      	lsrs	r3, r3, #2
 8001bcc:	3306      	adds	r3, #6
 8001bce:	009b      	lsls	r3, r3, #2
 8001bd0:	18d3      	adds	r3, r2, r3
 8001bd2:	3304      	adds	r3, #4
 8001bd4:	681b      	ldr	r3, [r3, #0]
 8001bd6:	1dfa      	adds	r2, r7, #7
 8001bd8:	7812      	ldrb	r2, [r2, #0]
 8001bda:	0011      	movs	r1, r2
 8001bdc:	2203      	movs	r2, #3
 8001bde:	400a      	ands	r2, r1
 8001be0:	00d2      	lsls	r2, r2, #3
 8001be2:	21ff      	movs	r1, #255	@ 0xff
 8001be4:	4091      	lsls	r1, r2
 8001be6:	000a      	movs	r2, r1
 8001be8:	43d2      	mvns	r2, r2
 8001bea:	401a      	ands	r2, r3
 8001bec:	0011      	movs	r1, r2
       (((priority << (8U - __NVIC_PRIO_BITS)) & (uint32_t)0xFFUL) << _BIT_SHIFT(IRQn)));
 8001bee:	683b      	ldr	r3, [r7, #0]
 8001bf0:	019b      	lsls	r3, r3, #6
 8001bf2:	22ff      	movs	r2, #255	@ 0xff
 8001bf4:	401a      	ands	r2, r3
 8001bf6:	1dfb      	adds	r3, r7, #7
 8001bf8:	781b      	ldrb	r3, [r3, #0]
 8001bfa:	0018      	movs	r0, r3
 8001bfc:	2303      	movs	r3, #3
 8001bfe:	4003      	ands	r3, r0
 8001c00:	00db      	lsls	r3, r3, #3
 8001c02:	409a      	lsls	r2, r3
    SCB->SHP[_SHP_IDX(IRQn)] = ((uint32_t)(SCB->SHP[_SHP_IDX(IRQn)] & ~(0xFFUL << _BIT_SHIFT(IRQn))) |
 8001c04:	4809      	ldr	r0, [pc, #36]	@ (8001c2c <__NVIC_SetPriority+0xd8>)
 8001c06:	1dfb      	adds	r3, r7, #7
 8001c08:	781b      	ldrb	r3, [r3, #0]
 8001c0a:	001c      	movs	r4, r3
 8001c0c:	230f      	movs	r3, #15
 8001c0e:	4023      	ands	r3, r4
 8001c10:	3b08      	subs	r3, #8
 8001c12:	089b      	lsrs	r3, r3, #2
 8001c14:	430a      	orrs	r2, r1
 8001c16:	3306      	adds	r3, #6
 8001c18:	009b      	lsls	r3, r3, #2
 8001c1a:	18c3      	adds	r3, r0, r3
 8001c1c:	3304      	adds	r3, #4
 8001c1e:	601a      	str	r2, [r3, #0]
}
 8001c20:	46c0      	nop			@ (mov r8, r8)
 8001c22:	46bd      	mov	sp, r7
 8001c24:	b003      	add	sp, #12
 8001c26:	bd90      	pop	{r4, r7, pc}
 8001c28:	e000e100 	.word	0xe000e100
 8001c2c:	e000ed00 	.word	0xe000ed00

08001c30 <LL_APB1_GRP2_EnableClock>:
{
 8001c30:	b580      	push	{r7, lr}
 8001c32:	b084      	sub	sp, #16
 8001c34:	af00      	add	r7, sp, #0
 8001c36:	6078      	str	r0, [r7, #4]
  SET_BIT(RCC->APBENR2, Periphs);
 8001c38:	4b07      	ldr	r3, [pc, #28]	@ (8001c58 <LL_APB1_GRP2_EnableClock+0x28>)
 8001c3a:	6c19      	ldr	r1, [r3, #64]	@ 0x40
 8001c3c:	4b06      	ldr	r3, [pc, #24]	@ (8001c58 <LL_APB1_GRP2_EnableClock+0x28>)
 8001c3e:	687a      	ldr	r2, [r7, #4]
 8001c40:	430a      	orrs	r2, r1
 8001c42:	641a      	str	r2, [r3, #64]	@ 0x40
  tmpreg = READ_BIT(RCC->APBENR2, Periphs);
 8001c44:	4b04      	ldr	r3, [pc, #16]	@ (8001c58 <LL_APB1_GRP2_EnableClock+0x28>)
 8001c46:	6c1b      	ldr	r3, [r3, #64]	@ 0x40
 8001c48:	687a      	ldr	r2, [r7, #4]
 8001c4a:	4013      	ands	r3, r2
 8001c4c:	60fb      	str	r3, [r7, #12]
  (void)tmpreg;
 8001c4e:	68fb      	ldr	r3, [r7, #12]
}
 8001c50:	46c0      	nop			@ (mov r8, r8)
 8001c52:	46bd      	mov	sp, r7
 8001c54:	b004      	add	sp, #16
 8001c56:	bd80      	pop	{r7, pc}
 8001c58:	40021000 	.word	0x40021000

08001c5c <LL_IOP_GRP1_EnableClock>:
{
 8001c5c:	b580      	push	{r7, lr}
 8001c5e:	b084      	sub	sp, #16
 8001c60:	af00      	add	r7, sp, #0
 8001c62:	6078      	str	r0, [r7, #4]
  SET_BIT(RCC->IOPENR, Periphs);
 8001c64:	4b07      	ldr	r3, [pc, #28]	@ (8001c84 <LL_IOP_GRP1_EnableClock+0x28>)
 8001c66:	6b59      	ldr	r1, [r3, #52]	@ 0x34
 8001c68:	4b06      	ldr	r3, [pc, #24]	@ (8001c84 <LL_IOP_GRP1_EnableClock+0x28>)
 8001c6a:	687a      	ldr	r2, [r7, #4]
 8001c6c:	430a      	orrs	r2, r1
 8001c6e:	635a      	str	r2, [r3, #52]	@ 0x34
  tmpreg = READ_BIT(RCC->IOPENR, Periphs);
 8001c70:	4b04      	ldr	r3, [pc, #16]	@ (8001c84 <LL_IOP_GRP1_EnableClock+0x28>)
 8001c72:	6b5b      	ldr	r3, [r3, #52]	@ 0x34
 8001c74:	687a      	ldr	r2, [r7, #4]
 8001c76:	4013      	ands	r3, r2
 8001c78:	60fb      	str	r3, [r7, #12]
  (void)tmpreg;
 8001c7a:	68fb      	ldr	r3, [r7, #12]
}
 8001c7c:	46c0      	nop			@ (mov r8, r8)
 8001c7e:	46bd      	mov	sp, r7
 8001c80:	b004      	add	sp, #16
 8001c82:	bd80      	pop	{r7, pc}
 8001c84:	40021000 	.word	0x40021000

08001c88 <LL_TIM_DisableARRPreload>:
{
 8001c88:	b580      	push	{r7, lr}
 8001c8a:	b082      	sub	sp, #8
 8001c8c:	af00      	add	r7, sp, #0
 8001c8e:	6078      	str	r0, [r7, #4]
  CLEAR_BIT(TIMx->CR1, TIM_CR1_ARPE);
 8001c90:	687b      	ldr	r3, [r7, #4]
 8001c92:	681b      	ldr	r3, [r3, #0]
 8001c94:	2280      	movs	r2, #128	@ 0x80
 8001c96:	4393      	bics	r3, r2
 8001c98:	001a      	movs	r2, r3
 8001c9a:	687b      	ldr	r3, [r7, #4]
 8001c9c:	601a      	str	r2, [r3, #0]
}
 8001c9e:	46c0      	nop			@ (mov r8, r8)
 8001ca0:	46bd      	mov	sp, r7
 8001ca2:	b002      	add	sp, #8
 8001ca4:	bd80      	pop	{r7, pc}
	...

08001ca8 <LL_TIM_OC_DisableFast>:
{
 8001ca8:	b580      	push	{r7, lr}
 8001caa:	b084      	sub	sp, #16
 8001cac:	af00      	add	r7, sp, #0
 8001cae:	6078      	str	r0, [r7, #4]
 8001cb0:	6039      	str	r1, [r7, #0]
  uint8_t iChannel = TIM_GET_CHANNEL_INDEX(Channel);
 8001cb2:	683b      	ldr	r3, [r7, #0]
 8001cb4:	2b01      	cmp	r3, #1
 8001cb6:	d02c      	beq.n	8001d12 <LL_TIM_OC_DisableFast+0x6a>
 8001cb8:	683b      	ldr	r3, [r7, #0]
 8001cba:	2b04      	cmp	r3, #4
 8001cbc:	d027      	beq.n	8001d0e <LL_TIM_OC_DisableFast+0x66>
 8001cbe:	683b      	ldr	r3, [r7, #0]
 8001cc0:	2b10      	cmp	r3, #16
 8001cc2:	d022      	beq.n	8001d0a <LL_TIM_OC_DisableFast+0x62>
 8001cc4:	683b      	ldr	r3, [r7, #0]
 8001cc6:	2b40      	cmp	r3, #64	@ 0x40
 8001cc8:	d01d      	beq.n	8001d06 <LL_TIM_OC_DisableFast+0x5e>
 8001cca:	683a      	ldr	r2, [r7, #0]
 8001ccc:	2380      	movs	r3, #128	@ 0x80
 8001cce:	005b      	lsls	r3, r3, #1
 8001cd0:	429a      	cmp	r2, r3
 8001cd2:	d016      	beq.n	8001d02 <LL_TIM_OC_DisableFast+0x5a>
 8001cd4:	683a      	ldr	r2, [r7, #0]
 8001cd6:	2380      	movs	r3, #128	@ 0x80
 8001cd8:	00db      	lsls	r3, r3, #3
 8001cda:	429a      	cmp	r2, r3
 8001cdc:	d00f      	beq.n	8001cfe <LL_TIM_OC_DisableFast+0x56>
 8001cde:	683a      	ldr	r2, [r7, #0]
 8001ce0:	2380      	movs	r3, #128	@ 0x80
 8001ce2:	015b      	lsls	r3, r3, #5
 8001ce4:	429a      	cmp	r2, r3
 8001ce6:	d008      	beq.n	8001cfa <LL_TIM_OC_DisableFast+0x52>
 8001ce8:	683a      	ldr	r2, [r7, #0]
 8001cea:	2380      	movs	r3, #128	@ 0x80
 8001cec:	025b      	lsls	r3, r3, #9
 8001cee:	429a      	cmp	r2, r3
 8001cf0:	d101      	bne.n	8001cf6 <LL_TIM_OC_DisableFast+0x4e>
 8001cf2:	2307      	movs	r3, #7
 8001cf4:	e00e      	b.n	8001d14 <LL_TIM_OC_DisableFast+0x6c>
 8001cf6:	2308      	movs	r3, #8
 8001cf8:	e00c      	b.n	8001d14 <LL_TIM_OC_DisableFast+0x6c>
 8001cfa:	2306      	movs	r3, #6
 8001cfc:	e00a      	b.n	8001d14 <LL_TIM_OC_DisableFast+0x6c>
 8001cfe:	2305      	movs	r3, #5
 8001d00:	e008      	b.n	8001d14 <LL_TIM_OC_DisableFast+0x6c>
 8001d02:	2304      	movs	r3, #4
 8001d04:	e006      	b.n	8001d14 <LL_TIM_OC_DisableFast+0x6c>
 8001d06:	2303      	movs	r3, #3
 8001d08:	e004      	b.n	8001d14 <LL_TIM_OC_DisableFast+0x6c>
 8001d0a:	2302      	movs	r3, #2
 8001d0c:	e002      	b.n	8001d14 <LL_TIM_OC_DisableFast+0x6c>
 8001d0e:	2301      	movs	r3, #1
 8001d10:	e000      	b.n	8001d14 <LL_TIM_OC_DisableFast+0x6c>
 8001d12:	2300      	movs	r3, #0
 8001d14:	200f      	movs	r0, #15
 8001d16:	183a      	adds	r2, r7, r0
 8001d18:	7013      	strb	r3, [r2, #0]
  __IO uint32_t *pReg = (__IO uint32_t *)((uint32_t)((uint32_t)(&TIMx->CCMR1) + OFFSET_TAB_CCMRx[iChannel]));
 8001d1a:	687b      	ldr	r3, [r7, #4]
 8001d1c:	3318      	adds	r3, #24
 8001d1e:	0019      	movs	r1, r3
 8001d20:	183b      	adds	r3, r7, r0
 8001d22:	781b      	ldrb	r3, [r3, #0]
 8001d24:	4a0a      	ldr	r2, [pc, #40]	@ (8001d50 <LL_TIM_OC_DisableFast+0xa8>)
 8001d26:	5cd3      	ldrb	r3, [r2, r3]
 8001d28:	18cb      	adds	r3, r1, r3
 8001d2a:	60bb      	str	r3, [r7, #8]
  CLEAR_BIT(*pReg, (TIM_CCMR1_OC1FE << SHIFT_TAB_OCxx[iChannel]));
 8001d2c:	68bb      	ldr	r3, [r7, #8]
 8001d2e:	681b      	ldr	r3, [r3, #0]
 8001d30:	183a      	adds	r2, r7, r0
 8001d32:	7812      	ldrb	r2, [r2, #0]
 8001d34:	4907      	ldr	r1, [pc, #28]	@ (8001d54 <LL_TIM_OC_DisableFast+0xac>)
 8001d36:	5c8a      	ldrb	r2, [r1, r2]
 8001d38:	0011      	movs	r1, r2
 8001d3a:	2204      	movs	r2, #4
 8001d3c:	408a      	lsls	r2, r1
 8001d3e:	43d2      	mvns	r2, r2
 8001d40:	401a      	ands	r2, r3
 8001d42:	68bb      	ldr	r3, [r7, #8]
 8001d44:	601a      	str	r2, [r3, #0]
}
 8001d46:	46c0      	nop			@ (mov r8, r8)
 8001d48:	46bd      	mov	sp, r7
 8001d4a:	b004      	add	sp, #16
 8001d4c:	bd80      	pop	{r7, pc}
 8001d4e:	46c0      	nop			@ (mov r8, r8)
 8001d50:	08003074 	.word	0x08003074
 8001d54:	08003080 	.word	0x08003080

08001d58 <LL_TIM_OC_EnablePreload>:
{
 8001d58:	b580      	push	{r7, lr}
 8001d5a:	b084      	sub	sp, #16
 8001d5c:	af00      	add	r7, sp, #0
 8001d5e:	6078      	str	r0, [r7, #4]
 8001d60:	6039      	str	r1, [r7, #0]
  uint8_t iChannel = TIM_GET_CHANNEL_INDEX(Channel);
 8001d62:	683b      	ldr	r3, [r7, #0]
 8001d64:	2b01      	cmp	r3, #1
 8001d66:	d02c      	beq.n	8001dc2 <LL_TIM_OC_EnablePreload+0x6a>
 8001d68:	683b      	ldr	r3, [r7, #0]
 8001d6a:	2b04      	cmp	r3, #4
 8001d6c:	d027      	beq.n	8001dbe <LL_TIM_OC_EnablePreload+0x66>
 8001d6e:	683b      	ldr	r3, [r7, #0]
 8001d70:	2b10      	cmp	r3, #16
 8001d72:	d022      	beq.n	8001dba <LL_TIM_OC_EnablePreload+0x62>
 8001d74:	683b      	ldr	r3, [r7, #0]
 8001d76:	2b40      	cmp	r3, #64	@ 0x40
 8001d78:	d01d      	beq.n	8001db6 <LL_TIM_OC_EnablePreload+0x5e>
 8001d7a:	683a      	ldr	r2, [r7, #0]
 8001d7c:	2380      	movs	r3, #128	@ 0x80
 8001d7e:	005b      	lsls	r3, r3, #1
 8001d80:	429a      	cmp	r2, r3
 8001d82:	d016      	beq.n	8001db2 <LL_TIM_OC_EnablePreload+0x5a>
 8001d84:	683a      	ldr	r2, [r7, #0]
 8001d86:	2380      	movs	r3, #128	@ 0x80
 8001d88:	00db      	lsls	r3, r3, #3
 8001d8a:	429a      	cmp	r2, r3
 8001d8c:	d00f      	beq.n	8001dae <LL_TIM_OC_EnablePreload+0x56>
 8001d8e:	683a      	ldr	r2, [r7, #0]
 8001d90:	2380      	movs	r3, #128	@ 0x80
 8001d92:	015b      	lsls	r3, r3, #5
 8001d94:	429a      	cmp	r2, r3
 8001d96:	d008      	beq.n	8001daa <LL_TIM_OC_EnablePreload+0x52>
 8001d98:	683a      	ldr	r2, [r7, #0]
 8001d9a:	2380      	movs	r3, #128	@ 0x80
 8001d9c:	025b      	lsls	r3, r3, #9
 8001d9e:	429a      	cmp	r2, r3
 8001da0:	d101      	bne.n	8001da6 <LL_TIM_OC_EnablePreload+0x4e>
 8001da2:	2307      	movs	r3, #7
 8001da4:	e00e      	b.n	8001dc4 <LL_TIM_OC_EnablePreload+0x6c>
 8001da6:	2308      	movs	r3, #8
 8001da8:	e00c      	b.n	8001dc4 <LL_TIM_OC_EnablePreload+0x6c>
 8001daa:	2306      	movs	r3, #6
 8001dac:	e00a      	b.n	8001dc4 <LL_TIM_OC_EnablePreload+0x6c>
 8001dae:	2305      	movs	r3, #5
 8001db0:	e008      	b.n	8001dc4 <LL_TIM_OC_EnablePreload+0x6c>
 8001db2:	2304      	movs	r3, #4
 8001db4:	e006      	b.n	8001dc4 <LL_TIM_OC_EnablePreload+0x6c>
 8001db6:	2303      	movs	r3, #3
 8001db8:	e004      	b.n	8001dc4 <LL_TIM_OC_EnablePreload+0x6c>
 8001dba:	2302      	movs	r3, #2
 8001dbc:	e002      	b.n	8001dc4 <LL_TIM_OC_EnablePreload+0x6c>
 8001dbe:	2301      	movs	r3, #1
 8001dc0:	e000      	b.n	8001dc4 <LL_TIM_OC_EnablePreload+0x6c>
 8001dc2:	2300      	movs	r3, #0
 8001dc4:	200f      	movs	r0, #15
 8001dc6:	183a      	adds	r2, r7, r0
 8001dc8:	7013      	strb	r3, [r2, #0]
  __IO uint32_t *pReg = (__IO uint32_t *)((uint32_t)((uint32_t)(&TIMx->CCMR1) + OFFSET_TAB_CCMRx[iChannel]));
 8001dca:	687b      	ldr	r3, [r7, #4]
 8001dcc:	3318      	adds	r3, #24
 8001dce:	0019      	movs	r1, r3
 8001dd0:	183b      	adds	r3, r7, r0
 8001dd2:	781b      	ldrb	r3, [r3, #0]
 8001dd4:	4a09      	ldr	r2, [pc, #36]	@ (8001dfc <LL_TIM_OC_EnablePreload+0xa4>)
 8001dd6:	5cd3      	ldrb	r3, [r2, r3]
 8001dd8:	18cb      	adds	r3, r1, r3
 8001dda:	60bb      	str	r3, [r7, #8]
  SET_BIT(*pReg, (TIM_CCMR1_OC1PE << SHIFT_TAB_OCxx[iChannel]));
 8001ddc:	68bb      	ldr	r3, [r7, #8]
 8001dde:	681a      	ldr	r2, [r3, #0]
 8001de0:	183b      	adds	r3, r7, r0
 8001de2:	781b      	ldrb	r3, [r3, #0]
 8001de4:	4906      	ldr	r1, [pc, #24]	@ (8001e00 <LL_TIM_OC_EnablePreload+0xa8>)
 8001de6:	5ccb      	ldrb	r3, [r1, r3]
 8001de8:	0019      	movs	r1, r3
 8001dea:	2308      	movs	r3, #8
 8001dec:	408b      	lsls	r3, r1
 8001dee:	431a      	orrs	r2, r3
 8001df0:	68bb      	ldr	r3, [r7, #8]
 8001df2:	601a      	str	r2, [r3, #0]
}
 8001df4:	46c0      	nop			@ (mov r8, r8)
 8001df6:	46bd      	mov	sp, r7
 8001df8:	b004      	add	sp, #16
 8001dfa:	bd80      	pop	{r7, pc}
 8001dfc:	08003074 	.word	0x08003074
 8001e00:	08003080 	.word	0x08003080

08001e04 <LL_TIM_SetClockSource>:
{
 8001e04:	b580      	push	{r7, lr}
 8001e06:	b082      	sub	sp, #8
 8001e08:	af00      	add	r7, sp, #0
 8001e0a:	6078      	str	r0, [r7, #4]
 8001e0c:	6039      	str	r1, [r7, #0]
  MODIFY_REG(TIMx->SMCR, TIM_SMCR_SMS | TIM_SMCR_ECE, ClockSource);
 8001e0e:	687b      	ldr	r3, [r7, #4]
 8001e10:	689b      	ldr	r3, [r3, #8]
 8001e12:	4a05      	ldr	r2, [pc, #20]	@ (8001e28 <LL_TIM_SetClockSource+0x24>)
 8001e14:	401a      	ands	r2, r3
 8001e16:	683b      	ldr	r3, [r7, #0]
 8001e18:	431a      	orrs	r2, r3
 8001e1a:	687b      	ldr	r3, [r7, #4]
 8001e1c:	609a      	str	r2, [r3, #8]
}
 8001e1e:	46c0      	nop			@ (mov r8, r8)
 8001e20:	46bd      	mov	sp, r7
 8001e22:	b002      	add	sp, #8
 8001e24:	bd80      	pop	{r7, pc}
 8001e26:	46c0      	nop			@ (mov r8, r8)
 8001e28:	fffebff8 	.word	0xfffebff8

08001e2c <LL_TIM_SetTriggerOutput>:
{
 8001e2c:	b580      	push	{r7, lr}
 8001e2e:	b082      	sub	sp, #8
 8001e30:	af00      	add	r7, sp, #0
 8001e32:	6078      	str	r0, [r7, #4]
 8001e34:	6039      	str	r1, [r7, #0]
  MODIFY_REG(TIMx->CR2, TIM_CR2_MMS, TimerSynchronization);
 8001e36:	687b      	ldr	r3, [r7, #4]
 8001e38:	685b      	ldr	r3, [r3, #4]
 8001e3a:	2270      	movs	r2, #112	@ 0x70
 8001e3c:	4393      	bics	r3, r2
 8001e3e:	001a      	movs	r2, r3
 8001e40:	683b      	ldr	r3, [r7, #0]
 8001e42:	431a      	orrs	r2, r3
 8001e44:	687b      	ldr	r3, [r7, #4]
 8001e46:	605a      	str	r2, [r3, #4]
}
 8001e48:	46c0      	nop			@ (mov r8, r8)
 8001e4a:	46bd      	mov	sp, r7
 8001e4c:	b002      	add	sp, #8
 8001e4e:	bd80      	pop	{r7, pc}

08001e50 <LL_TIM_SetTriggerOutput2>:
{
 8001e50:	b580      	push	{r7, lr}
 8001e52:	b082      	sub	sp, #8
 8001e54:	af00      	add	r7, sp, #0
 8001e56:	6078      	str	r0, [r7, #4]
 8001e58:	6039      	str	r1, [r7, #0]
  MODIFY_REG(TIMx->CR2, TIM_CR2_MMS2, ADCSynchronization);
 8001e5a:	687b      	ldr	r3, [r7, #4]
 8001e5c:	685b      	ldr	r3, [r3, #4]
 8001e5e:	4a05      	ldr	r2, [pc, #20]	@ (8001e74 <LL_TIM_SetTriggerOutput2+0x24>)
 8001e60:	401a      	ands	r2, r3
 8001e62:	683b      	ldr	r3, [r7, #0]
 8001e64:	431a      	orrs	r2, r3
 8001e66:	687b      	ldr	r3, [r7, #4]
 8001e68:	605a      	str	r2, [r3, #4]
}
 8001e6a:	46c0      	nop			@ (mov r8, r8)
 8001e6c:	46bd      	mov	sp, r7
 8001e6e:	b002      	add	sp, #8
 8001e70:	bd80      	pop	{r7, pc}
 8001e72:	46c0      	nop			@ (mov r8, r8)
 8001e74:	ff0fffff 	.word	0xff0fffff

08001e78 <LL_TIM_DisableMasterSlaveMode>:
{
 8001e78:	b580      	push	{r7, lr}
 8001e7a:	b082      	sub	sp, #8
 8001e7c:	af00      	add	r7, sp, #0
 8001e7e:	6078      	str	r0, [r7, #4]
  CLEAR_BIT(TIMx->SMCR, TIM_SMCR_MSM);
 8001e80:	687b      	ldr	r3, [r7, #4]
 8001e82:	689b      	ldr	r3, [r3, #8]
 8001e84:	2280      	movs	r2, #128	@ 0x80
 8001e86:	4393      	bics	r3, r2
 8001e88:	001a      	movs	r2, r3
 8001e8a:	687b      	ldr	r3, [r7, #4]
 8001e8c:	609a      	str	r2, [r3, #8]
}
 8001e8e:	46c0      	nop			@ (mov r8, r8)
 8001e90:	46bd      	mov	sp, r7
 8001e92:	b002      	add	sp, #8
 8001e94:	bd80      	pop	{r7, pc}
	...

08001e98 <MX_TIM1_Init>:

/* USER CODE END 0 */

/* TIM1 init function */
void MX_TIM1_Init(void)
{
 8001e98:	b5f0      	push	{r4, r5, r6, r7, lr}
 8001e9a:	b0a1      	sub	sp, #132	@ 0x84
 8001e9c:	af00      	add	r7, sp, #0

  /* USER CODE BEGIN TIM1_Init 0 */

  /* USER CODE END TIM1_Init 0 */

  LL_TIM_InitTypeDef TIM_InitStruct = {0};
 8001e9e:	266c      	movs	r6, #108	@ 0x6c
 8001ea0:	19bb      	adds	r3, r7, r6
 8001ea2:	0018      	movs	r0, r3
 8001ea4:	2314      	movs	r3, #20
 8001ea6:	001a      	movs	r2, r3
 8001ea8:	2100      	movs	r1, #0
 8001eaa:	f001 f8ab 	bl	8003004 <memset>
  LL_TIM_OC_InitTypeDef TIM_OC_InitStruct = {0};
 8001eae:	254c      	movs	r5, #76	@ 0x4c
 8001eb0:	197b      	adds	r3, r7, r5
 8001eb2:	0018      	movs	r0, r3
 8001eb4:	2320      	movs	r3, #32
 8001eb6:	001a      	movs	r2, r3
 8001eb8:	2100      	movs	r1, #0
 8001eba:	f001 f8a3 	bl	8003004 <memset>
  LL_TIM_BDTR_InitTypeDef TIM_BDTRInitStruct = {0};
 8001ebe:	241c      	movs	r4, #28
 8001ec0:	193b      	adds	r3, r7, r4
 8001ec2:	0018      	movs	r0, r3
 8001ec4:	2330      	movs	r3, #48	@ 0x30
 8001ec6:	001a      	movs	r2, r3
 8001ec8:	2100      	movs	r1, #0
 8001eca:	f001 f89b 	bl	8003004 <memset>

  LL_GPIO_InitTypeDef GPIO_InitStruct = {0};
 8001ece:	1d3b      	adds	r3, r7, #4
 8001ed0:	0018      	movs	r0, r3
 8001ed2:	2318      	movs	r3, #24
 8001ed4:	001a      	movs	r2, r3
 8001ed6:	2100      	movs	r1, #0
 8001ed8:	f001 f894 	bl	8003004 <memset>
  /* Peripheral clock enable */
  LL_APB2_GRP1_EnableClock(LL_APB2_GRP1_PERIPH_TIM1);
 8001edc:	2380      	movs	r3, #128	@ 0x80
 8001ede:	011b      	lsls	r3, r3, #4
 8001ee0:	0018      	movs	r0, r3
 8001ee2:	f7ff fea5 	bl	8001c30 <LL_APB1_GRP2_EnableClock>

  /* TIM1 interrupt Init */
  NVIC_SetPriority(TIM1_BRK_UP_TRG_COM_IRQn, 3);
 8001ee6:	2103      	movs	r1, #3
 8001ee8:	200d      	movs	r0, #13
 8001eea:	f7ff fe33 	bl	8001b54 <__NVIC_SetPriority>
  NVIC_EnableIRQ(TIM1_BRK_UP_TRG_COM_IRQn);
 8001eee:	200d      	movs	r0, #13
 8001ef0:	f7ff fe16 	bl	8001b20 <__NVIC_EnableIRQ>
  NVIC_SetPriority(TIM1_CC_IRQn, 3);
 8001ef4:	2103      	movs	r1, #3
 8001ef6:	200e      	movs	r0, #14
 8001ef8:	f7ff fe2c 	bl	8001b54 <__NVIC_SetPriority>
  NVIC_EnableIRQ(TIM1_CC_IRQn);
 8001efc:	200e      	movs	r0, #14
 8001efe:	f7ff fe0f 	bl	8001b20 <__NVIC_EnableIRQ>

  /* USER CODE BEGIN TIM1_Init 1 */

  /* USER CODE END TIM1_Init 1 */
  TIM_InitStruct.Prescaler = 0;
 8001f02:	19bb      	adds	r3, r7, r6
 8001f04:	2200      	movs	r2, #0
 8001f06:	801a      	strh	r2, [r3, #0]
  TIM_InitStruct.CounterMode = LL_TIM_COUNTERMODE_UP;
 8001f08:	0031      	movs	r1, r6
 8001f0a:	187b      	adds	r3, r7, r1
 8001f0c:	2200      	movs	r2, #0
 8001f0e:	605a      	str	r2, [r3, #4]
  TIM_InitStruct.Autoreload = 256-LL_TIM_IC_FILTER_FDIV1_N2;
 8001f10:	187b      	adds	r3, r7, r1
 8001f12:	4a50      	ldr	r2, [pc, #320]	@ (8002054 <MX_TIM1_Init+0x1bc>)
 8001f14:	609a      	str	r2, [r3, #8]
  TIM_InitStruct.ClockDivision = LL_TIM_CLOCKDIVISION_DIV1;
 8001f16:	187b      	adds	r3, r7, r1
 8001f18:	2200      	movs	r2, #0
 8001f1a:	60da      	str	r2, [r3, #12]
  TIM_InitStruct.RepetitionCounter = 0;
 8001f1c:	187b      	adds	r3, r7, r1
 8001f1e:	2200      	movs	r2, #0
 8001f20:	611a      	str	r2, [r3, #16]
  LL_TIM_Init(TIM1, &TIM_InitStruct);
 8001f22:	187b      	adds	r3, r7, r1
 8001f24:	4a4c      	ldr	r2, [pc, #304]	@ (8002058 <MX_TIM1_Init+0x1c0>)
 8001f26:	0019      	movs	r1, r3
 8001f28:	0010      	movs	r0, r2
 8001f2a:	f000 fc0d 	bl	8002748 <LL_TIM_Init>
  LL_TIM_DisableARRPreload(TIM1);
 8001f2e:	4b4a      	ldr	r3, [pc, #296]	@ (8002058 <MX_TIM1_Init+0x1c0>)
 8001f30:	0018      	movs	r0, r3
 8001f32:	f7ff fea9 	bl	8001c88 <LL_TIM_DisableARRPreload>
  LL_TIM_SetClockSource(TIM1, LL_TIM_CLOCKSOURCE_INTERNAL);
 8001f36:	4b48      	ldr	r3, [pc, #288]	@ (8002058 <MX_TIM1_Init+0x1c0>)
 8001f38:	2100      	movs	r1, #0
 8001f3a:	0018      	movs	r0, r3
 8001f3c:	f7ff ff62 	bl	8001e04 <LL_TIM_SetClockSource>
  LL_TIM_OC_EnablePreload(TIM1, LL_TIM_CHANNEL_CH4);
 8001f40:	2380      	movs	r3, #128	@ 0x80
 8001f42:	015b      	lsls	r3, r3, #5
 8001f44:	4a44      	ldr	r2, [pc, #272]	@ (8002058 <MX_TIM1_Init+0x1c0>)
 8001f46:	0019      	movs	r1, r3
 8001f48:	0010      	movs	r0, r2
 8001f4a:	f7ff ff05 	bl	8001d58 <LL_TIM_OC_EnablePreload>
  TIM_OC_InitStruct.OCMode = LL_TIM_OCMODE_PWM1;
 8001f4e:	0029      	movs	r1, r5
 8001f50:	187b      	adds	r3, r7, r1
 8001f52:	2260      	movs	r2, #96	@ 0x60
 8001f54:	601a      	str	r2, [r3, #0]
  TIM_OC_InitStruct.OCState = LL_TIM_OCSTATE_DISABLE;
 8001f56:	187b      	adds	r3, r7, r1
 8001f58:	2200      	movs	r2, #0
 8001f5a:	605a      	str	r2, [r3, #4]
  TIM_OC_InitStruct.OCNState = LL_TIM_OCSTATE_DISABLE;
 8001f5c:	187b      	adds	r3, r7, r1
 8001f5e:	2200      	movs	r2, #0
 8001f60:	609a      	str	r2, [r3, #8]
  TIM_OC_InitStruct.CompareValue = 0;
 8001f62:	187b      	adds	r3, r7, r1
 8001f64:	2200      	movs	r2, #0
 8001f66:	60da      	str	r2, [r3, #12]
  TIM_OC_InitStruct.OCPolarity = LL_TIM_OCPOLARITY_HIGH;
 8001f68:	187b      	adds	r3, r7, r1
 8001f6a:	2200      	movs	r2, #0
 8001f6c:	611a      	str	r2, [r3, #16]
  TIM_OC_InitStruct.OCIdleState = LL_TIM_OCIDLESTATE_HIGH;
 8001f6e:	187b      	adds	r3, r7, r1
 8001f70:	2280      	movs	r2, #128	@ 0x80
 8001f72:	0052      	lsls	r2, r2, #1
 8001f74:	619a      	str	r2, [r3, #24]
  TIM_OC_InitStruct.OCNIdleState = LL_TIM_OCIDLESTATE_LOW;
 8001f76:	187b      	adds	r3, r7, r1
 8001f78:	2200      	movs	r2, #0
 8001f7a:	61da      	str	r2, [r3, #28]
  LL_TIM_OC_Init(TIM1, LL_TIM_CHANNEL_CH4, &TIM_OC_InitStruct);
 8001f7c:	187a      	adds	r2, r7, r1
 8001f7e:	2380      	movs	r3, #128	@ 0x80
 8001f80:	015b      	lsls	r3, r3, #5
 8001f82:	4835      	ldr	r0, [pc, #212]	@ (8002058 <MX_TIM1_Init+0x1c0>)
 8001f84:	0019      	movs	r1, r3
 8001f86:	f000 fc4d 	bl	8002824 <LL_TIM_OC_Init>
  LL_TIM_OC_DisableFast(TIM1, LL_TIM_CHANNEL_CH4);
 8001f8a:	2380      	movs	r3, #128	@ 0x80
 8001f8c:	015b      	lsls	r3, r3, #5
 8001f8e:	4a32      	ldr	r2, [pc, #200]	@ (8002058 <MX_TIM1_Init+0x1c0>)
 8001f90:	0019      	movs	r1, r3
 8001f92:	0010      	movs	r0, r2
 8001f94:	f7ff fe88 	bl	8001ca8 <LL_TIM_OC_DisableFast>
  LL_TIM_SetTriggerOutput(TIM1, LL_TIM_TRGO_RESET);
 8001f98:	4b2f      	ldr	r3, [pc, #188]	@ (8002058 <MX_TIM1_Init+0x1c0>)
 8001f9a:	2100      	movs	r1, #0
 8001f9c:	0018      	movs	r0, r3
 8001f9e:	f7ff ff45 	bl	8001e2c <LL_TIM_SetTriggerOutput>
  LL_TIM_SetTriggerOutput2(TIM1, LL_TIM_TRGO2_RESET);
 8001fa2:	4b2d      	ldr	r3, [pc, #180]	@ (8002058 <MX_TIM1_Init+0x1c0>)
 8001fa4:	2100      	movs	r1, #0
 8001fa6:	0018      	movs	r0, r3
 8001fa8:	f7ff ff52 	bl	8001e50 <LL_TIM_SetTriggerOutput2>
  LL_TIM_DisableMasterSlaveMode(TIM1);
 8001fac:	4b2a      	ldr	r3, [pc, #168]	@ (8002058 <MX_TIM1_Init+0x1c0>)
 8001fae:	0018      	movs	r0, r3
 8001fb0:	f7ff ff62 	bl	8001e78 <LL_TIM_DisableMasterSlaveMode>
  TIM_BDTRInitStruct.OSSRState = LL_TIM_OSSR_DISABLE;
 8001fb4:	0021      	movs	r1, r4
 8001fb6:	187b      	adds	r3, r7, r1
 8001fb8:	2200      	movs	r2, #0
 8001fba:	601a      	str	r2, [r3, #0]
  TIM_BDTRInitStruct.OSSIState = LL_TIM_OSSI_DISABLE;
 8001fbc:	187b      	adds	r3, r7, r1
 8001fbe:	2200      	movs	r2, #0
 8001fc0:	605a      	str	r2, [r3, #4]
  TIM_BDTRInitStruct.LockLevel = LL_TIM_LOCKLEVEL_OFF;
 8001fc2:	187b      	adds	r3, r7, r1
 8001fc4:	2200      	movs	r2, #0
 8001fc6:	609a      	str	r2, [r3, #8]
  TIM_BDTRInitStruct.DeadTime = 0;
 8001fc8:	187b      	adds	r3, r7, r1
 8001fca:	2200      	movs	r2, #0
 8001fcc:	731a      	strb	r2, [r3, #12]
  TIM_BDTRInitStruct.BreakState = LL_TIM_BREAK_DISABLE;
 8001fce:	187b      	adds	r3, r7, r1
 8001fd0:	2200      	movs	r2, #0
 8001fd2:	81da      	strh	r2, [r3, #14]
  TIM_BDTRInitStruct.BreakPolarity = LL_TIM_BREAK_POLARITY_HIGH;
 8001fd4:	187b      	adds	r3, r7, r1
 8001fd6:	2280      	movs	r2, #128	@ 0x80
 8001fd8:	0192      	lsls	r2, r2, #6
 8001fda:	611a      	str	r2, [r3, #16]
  TIM_BDTRInitStruct.BreakFilter = LL_TIM_BREAK_FILTER_FDIV1;
 8001fdc:	187b      	adds	r3, r7, r1
 8001fde:	2200      	movs	r2, #0
 8001fe0:	615a      	str	r2, [r3, #20]
  TIM_BDTRInitStruct.BreakAFMode = LL_TIM_BREAK_AFMODE_INPUT;
 8001fe2:	187b      	adds	r3, r7, r1
 8001fe4:	2200      	movs	r2, #0
 8001fe6:	619a      	str	r2, [r3, #24]
  TIM_BDTRInitStruct.Break2State = LL_TIM_BREAK2_DISABLE;
 8001fe8:	187b      	adds	r3, r7, r1
 8001fea:	2200      	movs	r2, #0
 8001fec:	61da      	str	r2, [r3, #28]
  TIM_BDTRInitStruct.Break2Polarity = LL_TIM_BREAK2_POLARITY_HIGH;
 8001fee:	187b      	adds	r3, r7, r1
 8001ff0:	2280      	movs	r2, #128	@ 0x80
 8001ff2:	0492      	lsls	r2, r2, #18
 8001ff4:	621a      	str	r2, [r3, #32]
  TIM_BDTRInitStruct.Break2Filter = LL_TIM_BREAK2_FILTER_FDIV1;
 8001ff6:	187b      	adds	r3, r7, r1
 8001ff8:	2200      	movs	r2, #0
 8001ffa:	625a      	str	r2, [r3, #36]	@ 0x24
  TIM_BDTRInitStruct.Break2AFMode = LL_TIM_BREAK_AFMODE_INPUT;
 8001ffc:	187b      	adds	r3, r7, r1
 8001ffe:	2200      	movs	r2, #0
 8002000:	629a      	str	r2, [r3, #40]	@ 0x28
  TIM_BDTRInitStruct.AutomaticOutput = LL_TIM_AUTOMATICOUTPUT_DISABLE;
 8002002:	187b      	adds	r3, r7, r1
 8002004:	2200      	movs	r2, #0
 8002006:	62da      	str	r2, [r3, #44]	@ 0x2c
  LL_TIM_BDTR_Init(TIM1, &TIM_BDTRInitStruct);
 8002008:	187b      	adds	r3, r7, r1
 800200a:	4a13      	ldr	r2, [pc, #76]	@ (8002058 <MX_TIM1_Init+0x1c0>)
 800200c:	0019      	movs	r1, r3
 800200e:	0010      	movs	r0, r2
 8002010:	f000 fc8c 	bl	800292c <LL_TIM_BDTR_Init>
  /* USER CODE BEGIN TIM1_Init 2 */

  /* USER CODE END TIM1_Init 2 */
  LL_IOP_GRP1_EnableClock(LL_IOP_GRP1_PERIPH_GPIOB);
 8002014:	2002      	movs	r0, #2
 8002016:	f7ff fe21 	bl	8001c5c <LL_IOP_GRP1_EnableClock>
    /**TIM1 GPIO Configuration
    PB7     ------> TIM1_CH4
    */
  GPIO_InitStruct.Pin = PWM1_Pin;
 800201a:	1d3b      	adds	r3, r7, #4
 800201c:	2280      	movs	r2, #128	@ 0x80
 800201e:	601a      	str	r2, [r3, #0]
  GPIO_InitStruct.Mode = LL_GPIO_MODE_ALTERNATE;
 8002020:	1d3b      	adds	r3, r7, #4
 8002022:	2202      	movs	r2, #2
 8002024:	605a      	str	r2, [r3, #4]
  GPIO_InitStruct.Speed = LL_GPIO_SPEED_FREQ_LOW;
 8002026:	1d3b      	adds	r3, r7, #4
 8002028:	2200      	movs	r2, #0
 800202a:	609a      	str	r2, [r3, #8]
  GPIO_InitStruct.OutputType = LL_GPIO_OUTPUT_PUSHPULL;
 800202c:	1d3b      	adds	r3, r7, #4
 800202e:	2200      	movs	r2, #0
 8002030:	60da      	str	r2, [r3, #12]
  GPIO_InitStruct.Pull = LL_GPIO_PULL_NO;
 8002032:	1d3b      	adds	r3, r7, #4
 8002034:	2200      	movs	r2, #0
 8002036:	611a      	str	r2, [r3, #16]
  GPIO_InitStruct.Alternate = LL_GPIO_AF_1;
 8002038:	1d3b      	adds	r3, r7, #4
 800203a:	2201      	movs	r2, #1
 800203c:	615a      	str	r2, [r3, #20]
  LL_GPIO_Init(PWM1_GPIO_Port, &GPIO_InitStruct);
 800203e:	1d3b      	adds	r3, r7, #4
 8002040:	4a06      	ldr	r2, [pc, #24]	@ (800205c <MX_TIM1_Init+0x1c4>)
 8002042:	0019      	movs	r1, r3
 8002044:	0010      	movs	r0, r2
 8002046:	f000 fa05 	bl	8002454 <LL_GPIO_Init>

}
 800204a:	46c0      	nop			@ (mov r8, r8)
 800204c:	46bd      	mov	sp, r7
 800204e:	b021      	add	sp, #132	@ 0x84
 8002050:	bdf0      	pop	{r4, r5, r6, r7, pc}
 8002052:	46c0      	nop			@ (mov r8, r8)
 8002054:	fff00100 	.word	0xfff00100
 8002058:	40012c00 	.word	0x40012c00
 800205c:	50000400 	.word	0x50000400

08002060 <Reset_Handler>:

  .section .text.Reset_Handler
  .weak Reset_Handler
  .type Reset_Handler, %function
Reset_Handler:
   ldr   r0, =_estack
 8002060:	480d      	ldr	r0, [pc, #52]	@ (8002098 <LoopForever+0x2>)
  mov   sp, r0          /* set stack pointer */
 8002062:	4685      	mov	sp, r0
/* Call the clock system initialization function.*/
  bl  SystemInit
 8002064:	f7ff fd50 	bl	8001b08 <SystemInit>

/* Copy the data segment initializers from flash to SRAM */
  movs r1, #0
 8002068:	2100      	movs	r1, #0
  b LoopCopyDataInit
 800206a:	e003      	b.n	8002074 <LoopCopyDataInit>

0800206c <CopyDataInit>:

CopyDataInit:
  ldr r3, =_sidata
 800206c:	4b0b      	ldr	r3, [pc, #44]	@ (800209c <LoopForever+0x6>)
  ldr r3, [r3, r1]
 800206e:	585b      	ldr	r3, [r3, r1]
  str r3, [r0, r1]
 8002070:	5043      	str	r3, [r0, r1]
  adds r1, r1, #4
 8002072:	3104      	adds	r1, #4

08002074 <LoopCopyDataInit>:

LoopCopyDataInit:
  ldr r0, =_sdata
 8002074:	480a      	ldr	r0, [pc, #40]	@ (80020a0 <LoopForever+0xa>)
  ldr r3, =_edata
 8002076:	4b0b      	ldr	r3, [pc, #44]	@ (80020a4 <LoopForever+0xe>)
  adds r2, r0, r1
 8002078:	1842      	adds	r2, r0, r1
  cmp r2, r3
 800207a:	429a      	cmp	r2, r3
  bcc CopyDataInit
 800207c:	d3f6      	bcc.n	800206c <CopyDataInit>
  ldr r2, =_sbss
 800207e:	4a0a      	ldr	r2, [pc, #40]	@ (80020a8 <LoopForever+0x12>)
  b LoopFillZerobss
 8002080:	e002      	b.n	8002088 <LoopFillZerobss>

08002082 <FillZerobss>:
/* Zero fill the bss segment. */
FillZerobss:
  movs r3, #0
 8002082:	2300      	movs	r3, #0
  str  r3, [r2]
 8002084:	6013      	str	r3, [r2, #0]
  adds r2, r2, #4
 8002086:	3204      	adds	r2, #4

08002088 <LoopFillZerobss>:


LoopFillZerobss:
  ldr r3, = _ebss
 8002088:	4b08      	ldr	r3, [pc, #32]	@ (80020ac <LoopForever+0x16>)
  cmp r2, r3
 800208a:	429a      	cmp	r2, r3
  bcc FillZerobss
 800208c:	d3f9      	bcc.n	8002082 <FillZerobss>


/* Call static constructors */
  bl __libc_init_array
 800208e:	f000 ffc1 	bl	8003014 <__libc_init_array>
/* Call the application's entry point.*/
  bl main
 8002092:	f7fe fcfd 	bl	8000a90 <main>

08002096 <LoopForever>:

LoopForever:
    b LoopForever
 8002096:	e7fe      	b.n	8002096 <LoopForever>
   ldr   r0, =_estack
 8002098:	20001800 	.word	0x20001800
  ldr r3, =_sidata
 800209c:	08003094 	.word	0x08003094
  ldr r0, =_sdata
 80020a0:	20000000 	.word	0x20000000
  ldr r3, =_edata
 80020a4:	2000001c 	.word	0x2000001c
  ldr r2, =_sbss
 80020a8:	2000001c 	.word	0x2000001c
  ldr r3, = _ebss
 80020ac:	20000864 	.word	0x20000864

080020b0 <ADC1_IRQHandler>:
 * @retval : None
*/
    .section .text.Default_Handler,"ax",%progbits
Default_Handler:
Infinite_Loop:
  b Infinite_Loop
 80020b0:	e7fe      	b.n	80020b0 <ADC1_IRQHandler>
	...

080020b4 <LL_EXTI_EnableIT_0_31>:
{
 80020b4:	b580      	push	{r7, lr}
 80020b6:	b082      	sub	sp, #8
 80020b8:	af00      	add	r7, sp, #0
 80020ba:	6078      	str	r0, [r7, #4]
  SET_BIT(EXTI->IMR1, ExtiLine);
 80020bc:	4a05      	ldr	r2, [pc, #20]	@ (80020d4 <LL_EXTI_EnableIT_0_31+0x20>)
 80020be:	2380      	movs	r3, #128	@ 0x80
 80020c0:	58d2      	ldr	r2, [r2, r3]
 80020c2:	4904      	ldr	r1, [pc, #16]	@ (80020d4 <LL_EXTI_EnableIT_0_31+0x20>)
 80020c4:	687b      	ldr	r3, [r7, #4]
 80020c6:	4313      	orrs	r3, r2
 80020c8:	2280      	movs	r2, #128	@ 0x80
 80020ca:	508b      	str	r3, [r1, r2]
}
 80020cc:	46c0      	nop			@ (mov r8, r8)
 80020ce:	46bd      	mov	sp, r7
 80020d0:	b002      	add	sp, #8
 80020d2:	bd80      	pop	{r7, pc}
 80020d4:	40021800 	.word	0x40021800

080020d8 <LL_EXTI_DisableIT_0_31>:
{
 80020d8:	b580      	push	{r7, lr}
 80020da:	b082      	sub	sp, #8
 80020dc:	af00      	add	r7, sp, #0
 80020de:	6078      	str	r0, [r7, #4]
  CLEAR_BIT(EXTI->IMR1, ExtiLine);
 80020e0:	4a06      	ldr	r2, [pc, #24]	@ (80020fc <LL_EXTI_DisableIT_0_31+0x24>)
 80020e2:	2380      	movs	r3, #128	@ 0x80
 80020e4:	58d3      	ldr	r3, [r2, r3]
 80020e6:	687a      	ldr	r2, [r7, #4]
 80020e8:	43d2      	mvns	r2, r2
 80020ea:	4904      	ldr	r1, [pc, #16]	@ (80020fc <LL_EXTI_DisableIT_0_31+0x24>)
 80020ec:	4013      	ands	r3, r2
 80020ee:	2280      	movs	r2, #128	@ 0x80
 80020f0:	508b      	str	r3, [r1, r2]
}
 80020f2:	46c0      	nop			@ (mov r8, r8)
 80020f4:	46bd      	mov	sp, r7
 80020f6:	b002      	add	sp, #8
 80020f8:	bd80      	pop	{r7, pc}
 80020fa:	46c0      	nop			@ (mov r8, r8)
 80020fc:	40021800 	.word	0x40021800

08002100 <LL_EXTI_EnableEvent_0_31>:
{
 8002100:	b580      	push	{r7, lr}
 8002102:	b082      	sub	sp, #8
 8002104:	af00      	add	r7, sp, #0
 8002106:	6078      	str	r0, [r7, #4]
  SET_BIT(EXTI->EMR1, ExtiLine);
 8002108:	4a05      	ldr	r2, [pc, #20]	@ (8002120 <LL_EXTI_EnableEvent_0_31+0x20>)
 800210a:	2384      	movs	r3, #132	@ 0x84
 800210c:	58d2      	ldr	r2, [r2, r3]
 800210e:	4904      	ldr	r1, [pc, #16]	@ (8002120 <LL_EXTI_EnableEvent_0_31+0x20>)
 8002110:	687b      	ldr	r3, [r7, #4]
 8002112:	4313      	orrs	r3, r2
 8002114:	2284      	movs	r2, #132	@ 0x84
 8002116:	508b      	str	r3, [r1, r2]
}
 8002118:	46c0      	nop			@ (mov r8, r8)
 800211a:	46bd      	mov	sp, r7
 800211c:	b002      	add	sp, #8
 800211e:	bd80      	pop	{r7, pc}
 8002120:	40021800 	.word	0x40021800

08002124 <LL_EXTI_DisableEvent_0_31>:
{
 8002124:	b580      	push	{r7, lr}
 8002126:	b082      	sub	sp, #8
 8002128:	af00      	add	r7, sp, #0
 800212a:	6078      	str	r0, [r7, #4]
  CLEAR_BIT(EXTI->EMR1, ExtiLine);
 800212c:	4a06      	ldr	r2, [pc, #24]	@ (8002148 <LL_EXTI_DisableEvent_0_31+0x24>)
 800212e:	2384      	movs	r3, #132	@ 0x84
 8002130:	58d3      	ldr	r3, [r2, r3]
 8002132:	687a      	ldr	r2, [r7, #4]
 8002134:	43d2      	mvns	r2, r2
 8002136:	4904      	ldr	r1, [pc, #16]	@ (8002148 <LL_EXTI_DisableEvent_0_31+0x24>)
 8002138:	4013      	ands	r3, r2
 800213a:	2284      	movs	r2, #132	@ 0x84
 800213c:	508b      	str	r3, [r1, r2]
}
 800213e:	46c0      	nop			@ (mov r8, r8)
 8002140:	46bd      	mov	sp, r7
 8002142:	b002      	add	sp, #8
 8002144:	bd80      	pop	{r7, pc}
 8002146:	46c0      	nop			@ (mov r8, r8)
 8002148:	40021800 	.word	0x40021800

0800214c <LL_EXTI_EnableRisingTrig_0_31>:
{
 800214c:	b580      	push	{r7, lr}
 800214e:	b082      	sub	sp, #8
 8002150:	af00      	add	r7, sp, #0
 8002152:	6078      	str	r0, [r7, #4]
  SET_BIT(EXTI->RTSR1, ExtiLine);
 8002154:	4b04      	ldr	r3, [pc, #16]	@ (8002168 <LL_EXTI_EnableRisingTrig_0_31+0x1c>)
 8002156:	6819      	ldr	r1, [r3, #0]
 8002158:	4b03      	ldr	r3, [pc, #12]	@ (8002168 <LL_EXTI_EnableRisingTrig_0_31+0x1c>)
 800215a:	687a      	ldr	r2, [r7, #4]
 800215c:	430a      	orrs	r2, r1
 800215e:	601a      	str	r2, [r3, #0]
}
 8002160:	46c0      	nop			@ (mov r8, r8)
 8002162:	46bd      	mov	sp, r7
 8002164:	b002      	add	sp, #8
 8002166:	bd80      	pop	{r7, pc}
 8002168:	40021800 	.word	0x40021800

0800216c <LL_EXTI_DisableRisingTrig_0_31>:
{
 800216c:	b580      	push	{r7, lr}
 800216e:	b082      	sub	sp, #8
 8002170:	af00      	add	r7, sp, #0
 8002172:	6078      	str	r0, [r7, #4]
  CLEAR_BIT(EXTI->RTSR1, ExtiLine);
 8002174:	4b05      	ldr	r3, [pc, #20]	@ (800218c <LL_EXTI_DisableRisingTrig_0_31+0x20>)
 8002176:	681a      	ldr	r2, [r3, #0]
 8002178:	687b      	ldr	r3, [r7, #4]
 800217a:	43d9      	mvns	r1, r3
 800217c:	4b03      	ldr	r3, [pc, #12]	@ (800218c <LL_EXTI_DisableRisingTrig_0_31+0x20>)
 800217e:	400a      	ands	r2, r1
 8002180:	601a      	str	r2, [r3, #0]
}
 8002182:	46c0      	nop			@ (mov r8, r8)
 8002184:	46bd      	mov	sp, r7
 8002186:	b002      	add	sp, #8
 8002188:	bd80      	pop	{r7, pc}
 800218a:	46c0      	nop			@ (mov r8, r8)
 800218c:	40021800 	.word	0x40021800

08002190 <LL_EXTI_EnableFallingTrig_0_31>:
{
 8002190:	b580      	push	{r7, lr}
 8002192:	b082      	sub	sp, #8
 8002194:	af00      	add	r7, sp, #0
 8002196:	6078      	str	r0, [r7, #4]
  SET_BIT(EXTI->FTSR1, ExtiLine);
 8002198:	4b04      	ldr	r3, [pc, #16]	@ (80021ac <LL_EXTI_EnableFallingTrig_0_31+0x1c>)
 800219a:	6859      	ldr	r1, [r3, #4]
 800219c:	4b03      	ldr	r3, [pc, #12]	@ (80021ac <LL_EXTI_EnableFallingTrig_0_31+0x1c>)
 800219e:	687a      	ldr	r2, [r7, #4]
 80021a0:	430a      	orrs	r2, r1
 80021a2:	605a      	str	r2, [r3, #4]
}
 80021a4:	46c0      	nop			@ (mov r8, r8)
 80021a6:	46bd      	mov	sp, r7
 80021a8:	b002      	add	sp, #8
 80021aa:	bd80      	pop	{r7, pc}
 80021ac:	40021800 	.word	0x40021800

080021b0 <LL_EXTI_DisableFallingTrig_0_31>:
{
 80021b0:	b580      	push	{r7, lr}
 80021b2:	b082      	sub	sp, #8
 80021b4:	af00      	add	r7, sp, #0
 80021b6:	6078      	str	r0, [r7, #4]
  CLEAR_BIT(EXTI->FTSR1, ExtiLine);
 80021b8:	4b05      	ldr	r3, [pc, #20]	@ (80021d0 <LL_EXTI_DisableFallingTrig_0_31+0x20>)
 80021ba:	685a      	ldr	r2, [r3, #4]
 80021bc:	687b      	ldr	r3, [r7, #4]
 80021be:	43d9      	mvns	r1, r3
 80021c0:	4b03      	ldr	r3, [pc, #12]	@ (80021d0 <LL_EXTI_DisableFallingTrig_0_31+0x20>)
 80021c2:	400a      	ands	r2, r1
 80021c4:	605a      	str	r2, [r3, #4]
}
 80021c6:	46c0      	nop			@ (mov r8, r8)
 80021c8:	46bd      	mov	sp, r7
 80021ca:	b002      	add	sp, #8
 80021cc:	bd80      	pop	{r7, pc}
 80021ce:	46c0      	nop			@ (mov r8, r8)
 80021d0:	40021800 	.word	0x40021800

080021d4 <LL_EXTI_Init>:
  * @retval An ErrorStatus enumeration value:
  *          - SUCCESS: EXTI registers are initialized
  *          - ERROR: not applicable
  */
ErrorStatus LL_EXTI_Init(LL_EXTI_InitTypeDef *EXTI_InitStruct)
{
 80021d4:	b580      	push	{r7, lr}
 80021d6:	b084      	sub	sp, #16
 80021d8:	af00      	add	r7, sp, #0
 80021da:	6078      	str	r0, [r7, #4]
  ErrorStatus status = SUCCESS;
 80021dc:	230f      	movs	r3, #15
 80021de:	18fb      	adds	r3, r7, r3
 80021e0:	2200      	movs	r2, #0
 80021e2:	701a      	strb	r2, [r3, #0]
#endif /* EXTI_IMR2_IM36 */
  assert_param(IS_FUNCTIONAL_STATE(EXTI_InitStruct->LineCommand));
  assert_param(IS_LL_EXTI_MODE(EXTI_InitStruct->Mode));

  /* ENABLE LineCommand */
  if (EXTI_InitStruct->LineCommand != DISABLE)
 80021e4:	687b      	ldr	r3, [r7, #4]
 80021e6:	791b      	ldrb	r3, [r3, #4]
 80021e8:	2b00      	cmp	r3, #0
 80021ea:	d100      	bne.n	80021ee <LL_EXTI_Init+0x1a>
 80021ec:	e068      	b.n	80022c0 <LL_EXTI_Init+0xec>
  {
    assert_param(IS_LL_EXTI_TRIGGER(EXTI_InitStruct->Trigger));

    /* Configure EXTI Lines in range from 0 to 31 */
    if (EXTI_InitStruct->Line_0_31 != LL_EXTI_LINE_NONE)
 80021ee:	687b      	ldr	r3, [r7, #4]
 80021f0:	681b      	ldr	r3, [r3, #0]
 80021f2:	2b00      	cmp	r3, #0
 80021f4:	d100      	bne.n	80021f8 <LL_EXTI_Init+0x24>
 80021f6:	e06d      	b.n	80022d4 <LL_EXTI_Init+0x100>
    {
      switch (EXTI_InitStruct->Mode)
 80021f8:	687b      	ldr	r3, [r7, #4]
 80021fa:	795b      	ldrb	r3, [r3, #5]
 80021fc:	2b02      	cmp	r3, #2
 80021fe:	d01b      	beq.n	8002238 <LL_EXTI_Init+0x64>
 8002200:	dc25      	bgt.n	800224e <LL_EXTI_Init+0x7a>
 8002202:	2b00      	cmp	r3, #0
 8002204:	d002      	beq.n	800220c <LL_EXTI_Init+0x38>
 8002206:	2b01      	cmp	r3, #1
 8002208:	d00b      	beq.n	8002222 <LL_EXTI_Init+0x4e>
 800220a:	e020      	b.n	800224e <LL_EXTI_Init+0x7a>
      {
        case LL_EXTI_MODE_IT:
          /* First Disable Event on provided Lines */
          LL_EXTI_DisableEvent_0_31(EXTI_InitStruct->Line_0_31);
 800220c:	687b      	ldr	r3, [r7, #4]
 800220e:	681b      	ldr	r3, [r3, #0]
 8002210:	0018      	movs	r0, r3
 8002212:	f7ff ff87 	bl	8002124 <LL_EXTI_DisableEvent_0_31>
          /* Then Enable IT on provided Lines */
          LL_EXTI_EnableIT_0_31(EXTI_InitStruct->Line_0_31);
 8002216:	687b      	ldr	r3, [r7, #4]
 8002218:	681b      	ldr	r3, [r3, #0]
 800221a:	0018      	movs	r0, r3
 800221c:	f7ff ff4a 	bl	80020b4 <LL_EXTI_EnableIT_0_31>
          break;
 8002220:	e01a      	b.n	8002258 <LL_EXTI_Init+0x84>
        case LL_EXTI_MODE_EVENT:
          /* First Disable IT on provided Lines */
          LL_EXTI_DisableIT_0_31(EXTI_InitStruct->Line_0_31);
 8002222:	687b      	ldr	r3, [r7, #4]
 8002224:	681b      	ldr	r3, [r3, #0]
 8002226:	0018      	movs	r0, r3
 8002228:	f7ff ff56 	bl	80020d8 <LL_EXTI_DisableIT_0_31>
          /* Then Enable Event on provided Lines */
          LL_EXTI_EnableEvent_0_31(EXTI_InitStruct->Line_0_31);
 800222c:	687b      	ldr	r3, [r7, #4]
 800222e:	681b      	ldr	r3, [r3, #0]
 8002230:	0018      	movs	r0, r3
 8002232:	f7ff ff65 	bl	8002100 <LL_EXTI_EnableEvent_0_31>
          break;
 8002236:	e00f      	b.n	8002258 <LL_EXTI_Init+0x84>
        case LL_EXTI_MODE_IT_EVENT:
          /* Directly Enable IT & Event on provided Lines */
          LL_EXTI_EnableIT_0_31(EXTI_InitStruct->Line_0_31);
 8002238:	687b      	ldr	r3, [r7, #4]
 800223a:	681b      	ldr	r3, [r3, #0]
 800223c:	0018      	movs	r0, r3
 800223e:	f7ff ff39 	bl	80020b4 <LL_EXTI_EnableIT_0_31>
          LL_EXTI_EnableEvent_0_31(EXTI_InitStruct->Line_0_31);
 8002242:	687b      	ldr	r3, [r7, #4]
 8002244:	681b      	ldr	r3, [r3, #0]
 8002246:	0018      	movs	r0, r3
 8002248:	f7ff ff5a 	bl	8002100 <LL_EXTI_EnableEvent_0_31>
          break;
 800224c:	e004      	b.n	8002258 <LL_EXTI_Init+0x84>
        default:
          status = ERROR;
 800224e:	230f      	movs	r3, #15
 8002250:	18fb      	adds	r3, r7, r3
 8002252:	2201      	movs	r2, #1
 8002254:	701a      	strb	r2, [r3, #0]
          break;
 8002256:	46c0      	nop			@ (mov r8, r8)
      }

      if (EXTI_InitStruct->Trigger != LL_EXTI_TRIGGER_NONE)
 8002258:	687b      	ldr	r3, [r7, #4]
 800225a:	799b      	ldrb	r3, [r3, #6]
 800225c:	2b00      	cmp	r3, #0
 800225e:	d039      	beq.n	80022d4 <LL_EXTI_Init+0x100>
      {
        switch (EXTI_InitStruct->Trigger)
 8002260:	687b      	ldr	r3, [r7, #4]
 8002262:	799b      	ldrb	r3, [r3, #6]
 8002264:	2b03      	cmp	r3, #3
 8002266:	d01b      	beq.n	80022a0 <LL_EXTI_Init+0xcc>
 8002268:	dc25      	bgt.n	80022b6 <LL_EXTI_Init+0xe2>
 800226a:	2b01      	cmp	r3, #1
 800226c:	d002      	beq.n	8002274 <LL_EXTI_Init+0xa0>
 800226e:	2b02      	cmp	r3, #2
 8002270:	d00b      	beq.n	800228a <LL_EXTI_Init+0xb6>
 8002272:	e020      	b.n	80022b6 <LL_EXTI_Init+0xe2>
        {
          case LL_EXTI_TRIGGER_RISING:
            /* First Disable Falling Trigger on provided Lines */
            LL_EXTI_DisableFallingTrig_0_31(EXTI_InitStruct->Line_0_31);
 8002274:	687b      	ldr	r3, [r7, #4]
 8002276:	681b      	ldr	r3, [r3, #0]
 8002278:	0018      	movs	r0, r3
 800227a:	f7ff ff99 	bl	80021b0 <LL_EXTI_DisableFallingTrig_0_31>
            /* Then Enable Rising Trigger on provided Lines */
            LL_EXTI_EnableRisingTrig_0_31(EXTI_InitStruct->Line_0_31);
 800227e:	687b      	ldr	r3, [r7, #4]
 8002280:	681b      	ldr	r3, [r3, #0]
 8002282:	0018      	movs	r0, r3
 8002284:	f7ff ff62 	bl	800214c <LL_EXTI_EnableRisingTrig_0_31>
            break;
 8002288:	e024      	b.n	80022d4 <LL_EXTI_Init+0x100>
          case LL_EXTI_TRIGGER_FALLING:
            /* First Disable Rising Trigger on provided Lines */
            LL_EXTI_DisableRisingTrig_0_31(EXTI_InitStruct->Line_0_31);
 800228a:	687b      	ldr	r3, [r7, #4]
 800228c:	681b      	ldr	r3, [r3, #0]
 800228e:	0018      	movs	r0, r3
 8002290:	f7ff ff6c 	bl	800216c <LL_EXTI_DisableRisingTrig_0_31>
            /* Then Enable Falling Trigger on provided Lines */
            LL_EXTI_EnableFallingTrig_0_31(EXTI_InitStruct->Line_0_31);
 8002294:	687b      	ldr	r3, [r7, #4]
 8002296:	681b      	ldr	r3, [r3, #0]
 8002298:	0018      	movs	r0, r3
 800229a:	f7ff ff79 	bl	8002190 <LL_EXTI_EnableFallingTrig_0_31>
            break;
 800229e:	e019      	b.n	80022d4 <LL_EXTI_Init+0x100>
          case LL_EXTI_TRIGGER_RISING_FALLING:
            LL_EXTI_EnableRisingTrig_0_31(EXTI_InitStruct->Line_0_31);
 80022a0:	687b      	ldr	r3, [r7, #4]
 80022a2:	681b      	ldr	r3, [r3, #0]
 80022a4:	0018      	movs	r0, r3
 80022a6:	f7ff ff51 	bl	800214c <LL_EXTI_EnableRisingTrig_0_31>
            LL_EXTI_EnableFallingTrig_0_31(EXTI_InitStruct->Line_0_31);
 80022aa:	687b      	ldr	r3, [r7, #4]
 80022ac:	681b      	ldr	r3, [r3, #0]
 80022ae:	0018      	movs	r0, r3
 80022b0:	f7ff ff6e 	bl	8002190 <LL_EXTI_EnableFallingTrig_0_31>
            break;
 80022b4:	e00e      	b.n	80022d4 <LL_EXTI_Init+0x100>
          default:
            status = ERROR;
 80022b6:	230f      	movs	r3, #15
 80022b8:	18fb      	adds	r3, r7, r3
 80022ba:	2201      	movs	r2, #1
 80022bc:	701a      	strb	r2, [r3, #0]
            break;
 80022be:	e009      	b.n	80022d4 <LL_EXTI_Init+0x100>
  }
  /* DISABLE LineCommand */
  else
  {
    /* De-configure EXTI Lines in range from 0 to 31 */
    LL_EXTI_DisableIT_0_31(EXTI_InitStruct->Line_0_31);
 80022c0:	687b      	ldr	r3, [r7, #4]
 80022c2:	681b      	ldr	r3, [r3, #0]
 80022c4:	0018      	movs	r0, r3
 80022c6:	f7ff ff07 	bl	80020d8 <LL_EXTI_DisableIT_0_31>
    LL_EXTI_DisableEvent_0_31(EXTI_InitStruct->Line_0_31);
 80022ca:	687b      	ldr	r3, [r7, #4]
 80022cc:	681b      	ldr	r3, [r3, #0]
 80022ce:	0018      	movs	r0, r3
 80022d0:	f7ff ff28 	bl	8002124 <LL_EXTI_DisableEvent_0_31>
    /* De-configure EXTI Lines in range from 32 to 63 */
    LL_EXTI_DisableIT_32_63(EXTI_InitStruct->Line_32_63);
    LL_EXTI_DisableEvent_32_63(EXTI_InitStruct->Line_32_63);
#endif /* EXTI_IMR2_IM36 */
  }
  return status;
 80022d4:	230f      	movs	r3, #15
 80022d6:	18fb      	adds	r3, r7, r3
 80022d8:	781b      	ldrb	r3, [r3, #0]
}
 80022da:	0018      	movs	r0, r3
 80022dc:	46bd      	mov	sp, r7
 80022de:	b004      	add	sp, #16
 80022e0:	bd80      	pop	{r7, pc}

080022e2 <LL_GPIO_SetPinMode>:
{
 80022e2:	b580      	push	{r7, lr}
 80022e4:	b084      	sub	sp, #16
 80022e6:	af00      	add	r7, sp, #0
 80022e8:	60f8      	str	r0, [r7, #12]
 80022ea:	60b9      	str	r1, [r7, #8]
 80022ec:	607a      	str	r2, [r7, #4]
  MODIFY_REG(GPIOx->MODER, ((Pin * Pin) * GPIO_MODER_MODE0), ((Pin * Pin) * Mode));
 80022ee:	68fb      	ldr	r3, [r7, #12]
 80022f0:	6819      	ldr	r1, [r3, #0]
 80022f2:	68bb      	ldr	r3, [r7, #8]
 80022f4:	435b      	muls	r3, r3
 80022f6:	001a      	movs	r2, r3
 80022f8:	0013      	movs	r3, r2
 80022fa:	005b      	lsls	r3, r3, #1
 80022fc:	189b      	adds	r3, r3, r2
 80022fe:	43db      	mvns	r3, r3
 8002300:	400b      	ands	r3, r1
 8002302:	001a      	movs	r2, r3
 8002304:	68bb      	ldr	r3, [r7, #8]
 8002306:	435b      	muls	r3, r3
 8002308:	6879      	ldr	r1, [r7, #4]
 800230a:	434b      	muls	r3, r1
 800230c:	431a      	orrs	r2, r3
 800230e:	68fb      	ldr	r3, [r7, #12]
 8002310:	601a      	str	r2, [r3, #0]
}
 8002312:	46c0      	nop			@ (mov r8, r8)
 8002314:	46bd      	mov	sp, r7
 8002316:	b004      	add	sp, #16
 8002318:	bd80      	pop	{r7, pc}

0800231a <LL_GPIO_SetPinOutputType>:
{
 800231a:	b580      	push	{r7, lr}
 800231c:	b084      	sub	sp, #16
 800231e:	af00      	add	r7, sp, #0
 8002320:	60f8      	str	r0, [r7, #12]
 8002322:	60b9      	str	r1, [r7, #8]
 8002324:	607a      	str	r2, [r7, #4]
  MODIFY_REG(GPIOx->OTYPER, PinMask, (PinMask * OutputType));
 8002326:	68fb      	ldr	r3, [r7, #12]
 8002328:	685b      	ldr	r3, [r3, #4]
 800232a:	68ba      	ldr	r2, [r7, #8]
 800232c:	43d2      	mvns	r2, r2
 800232e:	401a      	ands	r2, r3
 8002330:	68bb      	ldr	r3, [r7, #8]
 8002332:	6879      	ldr	r1, [r7, #4]
 8002334:	434b      	muls	r3, r1
 8002336:	431a      	orrs	r2, r3
 8002338:	68fb      	ldr	r3, [r7, #12]
 800233a:	605a      	str	r2, [r3, #4]
}
 800233c:	46c0      	nop			@ (mov r8, r8)
 800233e:	46bd      	mov	sp, r7
 8002340:	b004      	add	sp, #16
 8002342:	bd80      	pop	{r7, pc}

08002344 <LL_GPIO_SetPinSpeed>:
{
 8002344:	b580      	push	{r7, lr}
 8002346:	b084      	sub	sp, #16
 8002348:	af00      	add	r7, sp, #0
 800234a:	60f8      	str	r0, [r7, #12]
 800234c:	60b9      	str	r1, [r7, #8]
 800234e:	607a      	str	r2, [r7, #4]
  MODIFY_REG(GPIOx->OSPEEDR, ((Pin * Pin) * GPIO_OSPEEDR_OSPEED0), ((Pin * Pin) * Speed));
 8002350:	68fb      	ldr	r3, [r7, #12]
 8002352:	6899      	ldr	r1, [r3, #8]
 8002354:	68bb      	ldr	r3, [r7, #8]
 8002356:	435b      	muls	r3, r3
 8002358:	001a      	movs	r2, r3
 800235a:	0013      	movs	r3, r2
 800235c:	005b      	lsls	r3, r3, #1
 800235e:	189b      	adds	r3, r3, r2
 8002360:	43db      	mvns	r3, r3
 8002362:	400b      	ands	r3, r1
 8002364:	001a      	movs	r2, r3
 8002366:	68bb      	ldr	r3, [r7, #8]
 8002368:	435b      	muls	r3, r3
 800236a:	6879      	ldr	r1, [r7, #4]
 800236c:	434b      	muls	r3, r1
 800236e:	431a      	orrs	r2, r3
 8002370:	68fb      	ldr	r3, [r7, #12]
 8002372:	609a      	str	r2, [r3, #8]
}
 8002374:	46c0      	nop			@ (mov r8, r8)
 8002376:	46bd      	mov	sp, r7
 8002378:	b004      	add	sp, #16
 800237a:	bd80      	pop	{r7, pc}

0800237c <LL_GPIO_SetPinPull>:
{
 800237c:	b580      	push	{r7, lr}
 800237e:	b084      	sub	sp, #16
 8002380:	af00      	add	r7, sp, #0
 8002382:	60f8      	str	r0, [r7, #12]
 8002384:	60b9      	str	r1, [r7, #8]
 8002386:	607a      	str	r2, [r7, #4]
  MODIFY_REG(GPIOx->PUPDR, ((Pin * Pin) * GPIO_PUPDR_PUPD0), ((Pin * Pin) * Pull));
 8002388:	68fb      	ldr	r3, [r7, #12]
 800238a:	68d9      	ldr	r1, [r3, #12]
 800238c:	68bb      	ldr	r3, [r7, #8]
 800238e:	435b      	muls	r3, r3
 8002390:	001a      	movs	r2, r3
 8002392:	0013      	movs	r3, r2
 8002394:	005b      	lsls	r3, r3, #1
 8002396:	189b      	adds	r3, r3, r2
 8002398:	43db      	mvns	r3, r3
 800239a:	400b      	ands	r3, r1
 800239c:	001a      	movs	r2, r3
 800239e:	68bb      	ldr	r3, [r7, #8]
 80023a0:	435b      	muls	r3, r3
 80023a2:	6879      	ldr	r1, [r7, #4]
 80023a4:	434b      	muls	r3, r1
 80023a6:	431a      	orrs	r2, r3
 80023a8:	68fb      	ldr	r3, [r7, #12]
 80023aa:	60da      	str	r2, [r3, #12]
}
 80023ac:	46c0      	nop			@ (mov r8, r8)
 80023ae:	46bd      	mov	sp, r7
 80023b0:	b004      	add	sp, #16
 80023b2:	bd80      	pop	{r7, pc}

080023b4 <LL_GPIO_SetAFPin_0_7>:
{
 80023b4:	b580      	push	{r7, lr}
 80023b6:	b084      	sub	sp, #16
 80023b8:	af00      	add	r7, sp, #0
 80023ba:	60f8      	str	r0, [r7, #12]
 80023bc:	60b9      	str	r1, [r7, #8]
 80023be:	607a      	str	r2, [r7, #4]
  MODIFY_REG(GPIOx->AFR[0], ((((Pin * Pin) * Pin) * Pin) * GPIO_AFRL_AFSEL0),
 80023c0:	68fb      	ldr	r3, [r7, #12]
 80023c2:	6a19      	ldr	r1, [r3, #32]
 80023c4:	68bb      	ldr	r3, [r7, #8]
 80023c6:	435b      	muls	r3, r3
 80023c8:	68ba      	ldr	r2, [r7, #8]
 80023ca:	4353      	muls	r3, r2
 80023cc:	68ba      	ldr	r2, [r7, #8]
 80023ce:	435a      	muls	r2, r3
 80023d0:	0013      	movs	r3, r2
 80023d2:	011b      	lsls	r3, r3, #4
 80023d4:	1a9b      	subs	r3, r3, r2
 80023d6:	43db      	mvns	r3, r3
 80023d8:	400b      	ands	r3, r1
 80023da:	001a      	movs	r2, r3
 80023dc:	68bb      	ldr	r3, [r7, #8]
 80023de:	435b      	muls	r3, r3
 80023e0:	68b9      	ldr	r1, [r7, #8]
 80023e2:	434b      	muls	r3, r1
 80023e4:	68b9      	ldr	r1, [r7, #8]
 80023e6:	434b      	muls	r3, r1
 80023e8:	6879      	ldr	r1, [r7, #4]
 80023ea:	434b      	muls	r3, r1
 80023ec:	431a      	orrs	r2, r3
 80023ee:	68fb      	ldr	r3, [r7, #12]
 80023f0:	621a      	str	r2, [r3, #32]
}
 80023f2:	46c0      	nop			@ (mov r8, r8)
 80023f4:	46bd      	mov	sp, r7
 80023f6:	b004      	add	sp, #16
 80023f8:	bd80      	pop	{r7, pc}

080023fa <LL_GPIO_SetAFPin_8_15>:
{
 80023fa:	b580      	push	{r7, lr}
 80023fc:	b084      	sub	sp, #16
 80023fe:	af00      	add	r7, sp, #0
 8002400:	60f8      	str	r0, [r7, #12]
 8002402:	60b9      	str	r1, [r7, #8]
 8002404:	607a      	str	r2, [r7, #4]
  MODIFY_REG(GPIOx->AFR[1], (((((Pin >> 8U) * (Pin >> 8U)) * (Pin >> 8U)) * (Pin >> 8U)) * GPIO_AFRH_AFSEL8),
 8002406:	68fb      	ldr	r3, [r7, #12]
 8002408:	6a59      	ldr	r1, [r3, #36]	@ 0x24
 800240a:	68bb      	ldr	r3, [r7, #8]
 800240c:	0a1b      	lsrs	r3, r3, #8
 800240e:	68ba      	ldr	r2, [r7, #8]
 8002410:	0a12      	lsrs	r2, r2, #8
 8002412:	4353      	muls	r3, r2
 8002414:	68ba      	ldr	r2, [r7, #8]
 8002416:	0a12      	lsrs	r2, r2, #8
 8002418:	4353      	muls	r3, r2
 800241a:	68ba      	ldr	r2, [r7, #8]
 800241c:	0a12      	lsrs	r2, r2, #8
 800241e:	435a      	muls	r2, r3
 8002420:	0013      	movs	r3, r2
 8002422:	011b      	lsls	r3, r3, #4
 8002424:	1a9b      	subs	r3, r3, r2
 8002426:	43db      	mvns	r3, r3
 8002428:	400b      	ands	r3, r1
 800242a:	001a      	movs	r2, r3
 800242c:	68bb      	ldr	r3, [r7, #8]
 800242e:	0a1b      	lsrs	r3, r3, #8
 8002430:	68b9      	ldr	r1, [r7, #8]
 8002432:	0a09      	lsrs	r1, r1, #8
 8002434:	434b      	muls	r3, r1
 8002436:	68b9      	ldr	r1, [r7, #8]
 8002438:	0a09      	lsrs	r1, r1, #8
 800243a:	434b      	muls	r3, r1
 800243c:	68b9      	ldr	r1, [r7, #8]
 800243e:	0a09      	lsrs	r1, r1, #8
 8002440:	434b      	muls	r3, r1
 8002442:	6879      	ldr	r1, [r7, #4]
 8002444:	434b      	muls	r3, r1
 8002446:	431a      	orrs	r2, r3
 8002448:	68fb      	ldr	r3, [r7, #12]
 800244a:	625a      	str	r2, [r3, #36]	@ 0x24
}
 800244c:	46c0      	nop			@ (mov r8, r8)
 800244e:	46bd      	mov	sp, r7
 8002450:	b004      	add	sp, #16
 8002452:	bd80      	pop	{r7, pc}

08002454 <LL_GPIO_Init>:
  * @retval An ErrorStatus enumeration value:
  *          - SUCCESS: GPIO registers are initialized according to GPIO_InitStruct content
  *          - ERROR:   Not applicable
  */
ErrorStatus LL_GPIO_Init(GPIO_TypeDef *GPIOx, LL_GPIO_InitTypeDef *GPIO_InitStruct)
{
 8002454:	b580      	push	{r7, lr}
 8002456:	b084      	sub	sp, #16
 8002458:	af00      	add	r7, sp, #0
 800245a:	6078      	str	r0, [r7, #4]
 800245c:	6039      	str	r1, [r7, #0]
  assert_param(IS_LL_GPIO_MODE(GPIO_InitStruct->Mode));
  assert_param(IS_LL_GPIO_PULL(GPIO_InitStruct->Pull));

  /* ------------------------- Configure the port pins ---------------- */
  /* Initialize  pinpos on first pin set */
  pinpos = 0;
 800245e:	2300      	movs	r3, #0
 8002460:	60fb      	str	r3, [r7, #12]

  /* Configure the port pins */
  while (((GPIO_InitStruct->Pin) >> pinpos) != 0x00u)
 8002462:	e047      	b.n	80024f4 <LL_GPIO_Init+0xa0>
  {
    /* Get current io position */
    currentpin = (GPIO_InitStruct->Pin) & (0x00000001uL << pinpos);
 8002464:	683b      	ldr	r3, [r7, #0]
 8002466:	681b      	ldr	r3, [r3, #0]
 8002468:	2101      	movs	r1, #1
 800246a:	68fa      	ldr	r2, [r7, #12]
 800246c:	4091      	lsls	r1, r2
 800246e:	000a      	movs	r2, r1
 8002470:	4013      	ands	r3, r2
 8002472:	60bb      	str	r3, [r7, #8]

    if (currentpin != 0x00u)
 8002474:	68bb      	ldr	r3, [r7, #8]
 8002476:	2b00      	cmp	r3, #0
 8002478:	d039      	beq.n	80024ee <LL_GPIO_Init+0x9a>
    {
      if ((GPIO_InitStruct->Mode == LL_GPIO_MODE_OUTPUT) || (GPIO_InitStruct->Mode == LL_GPIO_MODE_ALTERNATE))
 800247a:	683b      	ldr	r3, [r7, #0]
 800247c:	685b      	ldr	r3, [r3, #4]
 800247e:	2b01      	cmp	r3, #1
 8002480:	d003      	beq.n	800248a <LL_GPIO_Init+0x36>
 8002482:	683b      	ldr	r3, [r7, #0]
 8002484:	685b      	ldr	r3, [r3, #4]
 8002486:	2b02      	cmp	r3, #2
 8002488:	d10d      	bne.n	80024a6 <LL_GPIO_Init+0x52>
      {
        /* Check Speed mode parameters */
        assert_param(IS_LL_GPIO_SPEED(GPIO_InitStruct->Speed));

        /* Speed mode configuration */
        LL_GPIO_SetPinSpeed(GPIOx, currentpin, GPIO_InitStruct->Speed);
 800248a:	683b      	ldr	r3, [r7, #0]
 800248c:	689a      	ldr	r2, [r3, #8]
 800248e:	68b9      	ldr	r1, [r7, #8]
 8002490:	687b      	ldr	r3, [r7, #4]
 8002492:	0018      	movs	r0, r3
 8002494:	f7ff ff56 	bl	8002344 <LL_GPIO_SetPinSpeed>

        /* Check Output mode parameters */
        assert_param(IS_LL_GPIO_OUTPUT_TYPE(GPIO_InitStruct->OutputType));

        /* Output mode configuration*/
        LL_GPIO_SetPinOutputType(GPIOx, currentpin, GPIO_InitStruct->OutputType);
 8002498:	683b      	ldr	r3, [r7, #0]
 800249a:	68da      	ldr	r2, [r3, #12]
 800249c:	68b9      	ldr	r1, [r7, #8]
 800249e:	687b      	ldr	r3, [r7, #4]
 80024a0:	0018      	movs	r0, r3
 80024a2:	f7ff ff3a 	bl	800231a <LL_GPIO_SetPinOutputType>
      }

      /* Pull-up Pull down resistor configuration*/
      LL_GPIO_SetPinPull(GPIOx, currentpin, GPIO_InitStruct->Pull);
 80024a6:	683b      	ldr	r3, [r7, #0]
 80024a8:	691a      	ldr	r2, [r3, #16]
 80024aa:	68b9      	ldr	r1, [r7, #8]
 80024ac:	687b      	ldr	r3, [r7, #4]
 80024ae:	0018      	movs	r0, r3
 80024b0:	f7ff ff64 	bl	800237c <LL_GPIO_SetPinPull>

      if (GPIO_InitStruct->Mode == LL_GPIO_MODE_ALTERNATE)
 80024b4:	683b      	ldr	r3, [r7, #0]
 80024b6:	685b      	ldr	r3, [r3, #4]
 80024b8:	2b02      	cmp	r3, #2
 80024ba:	d111      	bne.n	80024e0 <LL_GPIO_Init+0x8c>
      {
        /* Check Alternate parameter */
        assert_param(IS_LL_GPIO_ALTERNATE(GPIO_InitStruct->Alternate));

        /* Speed mode configuration */
        if (currentpin < LL_GPIO_PIN_8)
 80024bc:	68bb      	ldr	r3, [r7, #8]
 80024be:	2bff      	cmp	r3, #255	@ 0xff
 80024c0:	d807      	bhi.n	80024d2 <LL_GPIO_Init+0x7e>
        {
          LL_GPIO_SetAFPin_0_7(GPIOx, currentpin, GPIO_InitStruct->Alternate);
 80024c2:	683b      	ldr	r3, [r7, #0]
 80024c4:	695a      	ldr	r2, [r3, #20]
 80024c6:	68b9      	ldr	r1, [r7, #8]
 80024c8:	687b      	ldr	r3, [r7, #4]
 80024ca:	0018      	movs	r0, r3
 80024cc:	f7ff ff72 	bl	80023b4 <LL_GPIO_SetAFPin_0_7>
 80024d0:	e006      	b.n	80024e0 <LL_GPIO_Init+0x8c>
        }
        else
        {
          LL_GPIO_SetAFPin_8_15(GPIOx, currentpin, GPIO_InitStruct->Alternate);
 80024d2:	683b      	ldr	r3, [r7, #0]
 80024d4:	695a      	ldr	r2, [r3, #20]
 80024d6:	68b9      	ldr	r1, [r7, #8]
 80024d8:	687b      	ldr	r3, [r7, #4]
 80024da:	0018      	movs	r0, r3
 80024dc:	f7ff ff8d 	bl	80023fa <LL_GPIO_SetAFPin_8_15>
        }
      }

      /* Pin Mode configuration */
      LL_GPIO_SetPinMode(GPIOx, currentpin, GPIO_InitStruct->Mode);
 80024e0:	683b      	ldr	r3, [r7, #0]
 80024e2:	685a      	ldr	r2, [r3, #4]
 80024e4:	68b9      	ldr	r1, [r7, #8]
 80024e6:	687b      	ldr	r3, [r7, #4]
 80024e8:	0018      	movs	r0, r3
 80024ea:	f7ff fefa 	bl	80022e2 <LL_GPIO_SetPinMode>
    }
    pinpos++;
 80024ee:	68fb      	ldr	r3, [r7, #12]
 80024f0:	3301      	adds	r3, #1
 80024f2:	60fb      	str	r3, [r7, #12]
  while (((GPIO_InitStruct->Pin) >> pinpos) != 0x00u)
 80024f4:	683b      	ldr	r3, [r7, #0]
 80024f6:	681a      	ldr	r2, [r3, #0]
 80024f8:	68fb      	ldr	r3, [r7, #12]
 80024fa:	40da      	lsrs	r2, r3
 80024fc:	1e13      	subs	r3, r2, #0
 80024fe:	d1b1      	bne.n	8002464 <LL_GPIO_Init+0x10>
  }

  return (SUCCESS);
 8002500:	2300      	movs	r3, #0
}
 8002502:	0018      	movs	r0, r3
 8002504:	46bd      	mov	sp, r7
 8002506:	b004      	add	sp, #16
 8002508:	bd80      	pop	{r7, pc}

0800250a <LL_SPI_IsEnabled>:
{
 800250a:	b580      	push	{r7, lr}
 800250c:	b082      	sub	sp, #8
 800250e:	af00      	add	r7, sp, #0
 8002510:	6078      	str	r0, [r7, #4]
  return ((READ_BIT(SPIx->CR1, SPI_CR1_SPE) == (SPI_CR1_SPE)) ? 1UL : 0UL);
 8002512:	687b      	ldr	r3, [r7, #4]
 8002514:	681b      	ldr	r3, [r3, #0]
 8002516:	2240      	movs	r2, #64	@ 0x40
 8002518:	4013      	ands	r3, r2
 800251a:	2b40      	cmp	r3, #64	@ 0x40
 800251c:	d101      	bne.n	8002522 <LL_SPI_IsEnabled+0x18>
 800251e:	2301      	movs	r3, #1
 8002520:	e000      	b.n	8002524 <LL_SPI_IsEnabled+0x1a>
 8002522:	2300      	movs	r3, #0
}
 8002524:	0018      	movs	r0, r3
 8002526:	46bd      	mov	sp, r7
 8002528:	b002      	add	sp, #8
 800252a:	bd80      	pop	{r7, pc}

0800252c <LL_SPI_SetRxFIFOThreshold>:
{
 800252c:	b580      	push	{r7, lr}
 800252e:	b082      	sub	sp, #8
 8002530:	af00      	add	r7, sp, #0
 8002532:	6078      	str	r0, [r7, #4]
 8002534:	6039      	str	r1, [r7, #0]
  MODIFY_REG(SPIx->CR2, SPI_CR2_FRXTH, Threshold);
 8002536:	687b      	ldr	r3, [r7, #4]
 8002538:	685b      	ldr	r3, [r3, #4]
 800253a:	4a05      	ldr	r2, [pc, #20]	@ (8002550 <LL_SPI_SetRxFIFOThreshold+0x24>)
 800253c:	401a      	ands	r2, r3
 800253e:	683b      	ldr	r3, [r7, #0]
 8002540:	431a      	orrs	r2, r3
 8002542:	687b      	ldr	r3, [r7, #4]
 8002544:	605a      	str	r2, [r3, #4]
}
 8002546:	46c0      	nop			@ (mov r8, r8)
 8002548:	46bd      	mov	sp, r7
 800254a:	b002      	add	sp, #8
 800254c:	bd80      	pop	{r7, pc}
 800254e:	46c0      	nop			@ (mov r8, r8)
 8002550:	ffffefff 	.word	0xffffefff

08002554 <LL_SPI_SetCRCPolynomial>:
{
 8002554:	b580      	push	{r7, lr}
 8002556:	b082      	sub	sp, #8
 8002558:	af00      	add	r7, sp, #0
 800255a:	6078      	str	r0, [r7, #4]
 800255c:	6039      	str	r1, [r7, #0]
  WRITE_REG(SPIx->CRCPR, (uint16_t)CRCPoly);
 800255e:	683b      	ldr	r3, [r7, #0]
 8002560:	b29b      	uxth	r3, r3
 8002562:	001a      	movs	r2, r3
 8002564:	687b      	ldr	r3, [r7, #4]
 8002566:	611a      	str	r2, [r3, #16]
}
 8002568:	46c0      	nop			@ (mov r8, r8)
 800256a:	46bd      	mov	sp, r7
 800256c:	b002      	add	sp, #8
 800256e:	bd80      	pop	{r7, pc}

08002570 <LL_SPI_Init>:
  * @param  SPIx SPI Instance
  * @param  SPI_InitStruct pointer to a @ref LL_SPI_InitTypeDef structure
  * @retval An ErrorStatus enumeration value. (Return always SUCCESS)
  */
ErrorStatus LL_SPI_Init(SPI_TypeDef *SPIx, LL_SPI_InitTypeDef *SPI_InitStruct)
{
 8002570:	b580      	push	{r7, lr}
 8002572:	b084      	sub	sp, #16
 8002574:	af00      	add	r7, sp, #0
 8002576:	6078      	str	r0, [r7, #4]
 8002578:	6039      	str	r1, [r7, #0]
  ErrorStatus status = ERROR;
 800257a:	230f      	movs	r3, #15
 800257c:	18fb      	adds	r3, r7, r3
 800257e:	2201      	movs	r2, #1
 8002580:	701a      	strb	r2, [r3, #0]
  assert_param(IS_LL_SPI_NSS(SPI_InitStruct->NSS));
  assert_param(IS_LL_SPI_BAUDRATE(SPI_InitStruct->BaudRate));
  assert_param(IS_LL_SPI_BITORDER(SPI_InitStruct->BitOrder));
  assert_param(IS_LL_SPI_CRCCALCULATION(SPI_InitStruct->CRCCalculation));

  if (LL_SPI_IsEnabled(SPIx) == 0x00000000U)
 8002582:	687b      	ldr	r3, [r7, #4]
 8002584:	0018      	movs	r0, r3
 8002586:	f7ff ffc0 	bl	800250a <LL_SPI_IsEnabled>
 800258a:	1e03      	subs	r3, r0, #0
 800258c:	d148      	bne.n	8002620 <LL_SPI_Init+0xb0>
     * - NSS management:     SPI_CR1_SSM bit
     * - BaudRate prescaler: SPI_CR1_BR[2:0] bits
     * - BitOrder:           SPI_CR1_LSBFIRST bit
     * - CRCCalculation:     SPI_CR1_CRCEN bit
     */
    MODIFY_REG(SPIx->CR1,
 800258e:	687b      	ldr	r3, [r7, #4]
 8002590:	681b      	ldr	r3, [r3, #0]
 8002592:	4a2a      	ldr	r2, [pc, #168]	@ (800263c <LL_SPI_Init+0xcc>)
 8002594:	401a      	ands	r2, r3
 8002596:	683b      	ldr	r3, [r7, #0]
 8002598:	6819      	ldr	r1, [r3, #0]
 800259a:	683b      	ldr	r3, [r7, #0]
 800259c:	685b      	ldr	r3, [r3, #4]
 800259e:	4319      	orrs	r1, r3
 80025a0:	683b      	ldr	r3, [r7, #0]
 80025a2:	68db      	ldr	r3, [r3, #12]
 80025a4:	4319      	orrs	r1, r3
 80025a6:	683b      	ldr	r3, [r7, #0]
 80025a8:	691b      	ldr	r3, [r3, #16]
 80025aa:	4319      	orrs	r1, r3
 80025ac:	683b      	ldr	r3, [r7, #0]
 80025ae:	695b      	ldr	r3, [r3, #20]
 80025b0:	4319      	orrs	r1, r3
 80025b2:	683b      	ldr	r3, [r7, #0]
 80025b4:	699b      	ldr	r3, [r3, #24]
 80025b6:	4319      	orrs	r1, r3
 80025b8:	683b      	ldr	r3, [r7, #0]
 80025ba:	69db      	ldr	r3, [r3, #28]
 80025bc:	4319      	orrs	r1, r3
 80025be:	683b      	ldr	r3, [r7, #0]
 80025c0:	6a1b      	ldr	r3, [r3, #32]
 80025c2:	430b      	orrs	r3, r1
 80025c4:	431a      	orrs	r2, r3
 80025c6:	687b      	ldr	r3, [r7, #4]
 80025c8:	601a      	str	r2, [r3, #0]
    /*---------------------------- SPIx CR2 Configuration ------------------------
     * Configure SPIx CR2 with parameters:
     * - DataWidth:          DS[3:0] bits
     * - NSS management:     SSOE bit
     */
    MODIFY_REG(SPIx->CR2,
 80025ca:	687b      	ldr	r3, [r7, #4]
 80025cc:	685b      	ldr	r3, [r3, #4]
 80025ce:	4a1c      	ldr	r2, [pc, #112]	@ (8002640 <LL_SPI_Init+0xd0>)
 80025d0:	401a      	ands	r2, r3
 80025d2:	683b      	ldr	r3, [r7, #0]
 80025d4:	6899      	ldr	r1, [r3, #8]
 80025d6:	683b      	ldr	r3, [r7, #0]
 80025d8:	695b      	ldr	r3, [r3, #20]
 80025da:	0c1b      	lsrs	r3, r3, #16
 80025dc:	430b      	orrs	r3, r1
 80025de:	431a      	orrs	r2, r3
 80025e0:	687b      	ldr	r3, [r7, #4]
 80025e2:	605a      	str	r2, [r3, #4]
               SPI_CR2_DS | SPI_CR2_SSOE,
               SPI_InitStruct->DataWidth | (SPI_InitStruct->NSS >> 16U));

    /* Set Rx FIFO to Quarter (1 Byte) in case of 8 Bits mode. No DataPacking by default */
    if (SPI_InitStruct->DataWidth < LL_SPI_DATAWIDTH_9BIT)
 80025e4:	683b      	ldr	r3, [r7, #0]
 80025e6:	689a      	ldr	r2, [r3, #8]
 80025e8:	2380      	movs	r3, #128	@ 0x80
 80025ea:	011b      	lsls	r3, r3, #4
 80025ec:	429a      	cmp	r2, r3
 80025ee:	d206      	bcs.n	80025fe <LL_SPI_Init+0x8e>
    {
      LL_SPI_SetRxFIFOThreshold(SPIx, LL_SPI_RX_FIFO_TH_QUARTER);
 80025f0:	2380      	movs	r3, #128	@ 0x80
 80025f2:	015a      	lsls	r2, r3, #5
 80025f4:	687b      	ldr	r3, [r7, #4]
 80025f6:	0011      	movs	r1, r2
 80025f8:	0018      	movs	r0, r3
 80025fa:	f7ff ff97 	bl	800252c <LL_SPI_SetRxFIFOThreshold>

    /*---------------------------- SPIx CRCPR Configuration ----------------------
     * Configure SPIx CRCPR with parameters:
     * - CRCPoly:            CRCPOLY[15:0] bits
     */
    if (SPI_InitStruct->CRCCalculation == LL_SPI_CRCCALCULATION_ENABLE)
 80025fe:	683b      	ldr	r3, [r7, #0]
 8002600:	6a1a      	ldr	r2, [r3, #32]
 8002602:	2380      	movs	r3, #128	@ 0x80
 8002604:	019b      	lsls	r3, r3, #6
 8002606:	429a      	cmp	r2, r3
 8002608:	d106      	bne.n	8002618 <LL_SPI_Init+0xa8>
    {
      assert_param(IS_LL_SPI_CRC_POLYNOMIAL(SPI_InitStruct->CRCPoly));
      LL_SPI_SetCRCPolynomial(SPIx, SPI_InitStruct->CRCPoly);
 800260a:	683b      	ldr	r3, [r7, #0]
 800260c:	6a5a      	ldr	r2, [r3, #36]	@ 0x24
 800260e:	687b      	ldr	r3, [r7, #4]
 8002610:	0011      	movs	r1, r2
 8002612:	0018      	movs	r0, r3
 8002614:	f7ff ff9e 	bl	8002554 <LL_SPI_SetCRCPolynomial>
    }
    status = SUCCESS;
 8002618:	230f      	movs	r3, #15
 800261a:	18fb      	adds	r3, r7, r3
 800261c:	2200      	movs	r2, #0
 800261e:	701a      	strb	r2, [r3, #0]
  }

#if defined (SPI_I2S_SUPPORT)
  /* Activate the SPI mode (Reset I2SMOD bit in I2SCFGR register) */
  CLEAR_BIT(SPIx->I2SCFGR, SPI_I2SCFGR_I2SMOD);
 8002620:	687b      	ldr	r3, [r7, #4]
 8002622:	69db      	ldr	r3, [r3, #28]
 8002624:	4a07      	ldr	r2, [pc, #28]	@ (8002644 <LL_SPI_Init+0xd4>)
 8002626:	401a      	ands	r2, r3
 8002628:	687b      	ldr	r3, [r7, #4]
 800262a:	61da      	str	r2, [r3, #28]
#endif /* SPI_I2S_SUPPORT */
  return status;
 800262c:	230f      	movs	r3, #15
 800262e:	18fb      	adds	r3, r7, r3
 8002630:	781b      	ldrb	r3, [r3, #0]
}
 8002632:	0018      	movs	r0, r3
 8002634:	46bd      	mov	sp, r7
 8002636:	b004      	add	sp, #16
 8002638:	bd80      	pop	{r7, pc}
 800263a:	46c0      	nop			@ (mov r8, r8)
 800263c:	ffff0040 	.word	0xffff0040
 8002640:	fffff0fb 	.word	0xfffff0fb
 8002644:	fffff7ff 	.word	0xfffff7ff

08002648 <LL_TIM_SetPrescaler>:
{
 8002648:	b580      	push	{r7, lr}
 800264a:	b082      	sub	sp, #8
 800264c:	af00      	add	r7, sp, #0
 800264e:	6078      	str	r0, [r7, #4]
 8002650:	6039      	str	r1, [r7, #0]
  WRITE_REG(TIMx->PSC, Prescaler);
 8002652:	687b      	ldr	r3, [r7, #4]
 8002654:	683a      	ldr	r2, [r7, #0]
 8002656:	629a      	str	r2, [r3, #40]	@ 0x28
}
 8002658:	46c0      	nop			@ (mov r8, r8)
 800265a:	46bd      	mov	sp, r7
 800265c:	b002      	add	sp, #8
 800265e:	bd80      	pop	{r7, pc}

08002660 <LL_TIM_SetAutoReload>:
{
 8002660:	b580      	push	{r7, lr}
 8002662:	b082      	sub	sp, #8
 8002664:	af00      	add	r7, sp, #0
 8002666:	6078      	str	r0, [r7, #4]
 8002668:	6039      	str	r1, [r7, #0]
  WRITE_REG(TIMx->ARR, AutoReload);
 800266a:	687b      	ldr	r3, [r7, #4]
 800266c:	683a      	ldr	r2, [r7, #0]
 800266e:	62da      	str	r2, [r3, #44]	@ 0x2c
}
 8002670:	46c0      	nop			@ (mov r8, r8)
 8002672:	46bd      	mov	sp, r7
 8002674:	b002      	add	sp, #8
 8002676:	bd80      	pop	{r7, pc}

08002678 <LL_TIM_SetRepetitionCounter>:
{
 8002678:	b580      	push	{r7, lr}
 800267a:	b082      	sub	sp, #8
 800267c:	af00      	add	r7, sp, #0
 800267e:	6078      	str	r0, [r7, #4]
 8002680:	6039      	str	r1, [r7, #0]
  WRITE_REG(TIMx->RCR, RepetitionCounter);
 8002682:	687b      	ldr	r3, [r7, #4]
 8002684:	683a      	ldr	r2, [r7, #0]
 8002686:	631a      	str	r2, [r3, #48]	@ 0x30
}
 8002688:	46c0      	nop			@ (mov r8, r8)
 800268a:	46bd      	mov	sp, r7
 800268c:	b002      	add	sp, #8
 800268e:	bd80      	pop	{r7, pc}

08002690 <LL_TIM_OC_SetCompareCH1>:
{
 8002690:	b580      	push	{r7, lr}
 8002692:	b082      	sub	sp, #8
 8002694:	af00      	add	r7, sp, #0
 8002696:	6078      	str	r0, [r7, #4]
 8002698:	6039      	str	r1, [r7, #0]
  WRITE_REG(TIMx->CCR1, CompareValue);
 800269a:	687b      	ldr	r3, [r7, #4]
 800269c:	683a      	ldr	r2, [r7, #0]
 800269e:	635a      	str	r2, [r3, #52]	@ 0x34
}
 80026a0:	46c0      	nop			@ (mov r8, r8)
 80026a2:	46bd      	mov	sp, r7
 80026a4:	b002      	add	sp, #8
 80026a6:	bd80      	pop	{r7, pc}

080026a8 <LL_TIM_OC_SetCompareCH2>:
{
 80026a8:	b580      	push	{r7, lr}
 80026aa:	b082      	sub	sp, #8
 80026ac:	af00      	add	r7, sp, #0
 80026ae:	6078      	str	r0, [r7, #4]
 80026b0:	6039      	str	r1, [r7, #0]
  WRITE_REG(TIMx->CCR2, CompareValue);
 80026b2:	687b      	ldr	r3, [r7, #4]
 80026b4:	683a      	ldr	r2, [r7, #0]
 80026b6:	639a      	str	r2, [r3, #56]	@ 0x38
}
 80026b8:	46c0      	nop			@ (mov r8, r8)
 80026ba:	46bd      	mov	sp, r7
 80026bc:	b002      	add	sp, #8
 80026be:	bd80      	pop	{r7, pc}

080026c0 <LL_TIM_OC_SetCompareCH3>:
{
 80026c0:	b580      	push	{r7, lr}
 80026c2:	b082      	sub	sp, #8
 80026c4:	af00      	add	r7, sp, #0
 80026c6:	6078      	str	r0, [r7, #4]
 80026c8:	6039      	str	r1, [r7, #0]
  WRITE_REG(TIMx->CCR3, CompareValue);
 80026ca:	687b      	ldr	r3, [r7, #4]
 80026cc:	683a      	ldr	r2, [r7, #0]
 80026ce:	63da      	str	r2, [r3, #60]	@ 0x3c
}
 80026d0:	46c0      	nop			@ (mov r8, r8)
 80026d2:	46bd      	mov	sp, r7
 80026d4:	b002      	add	sp, #8
 80026d6:	bd80      	pop	{r7, pc}

080026d8 <LL_TIM_OC_SetCompareCH4>:
{
 80026d8:	b580      	push	{r7, lr}
 80026da:	b082      	sub	sp, #8
 80026dc:	af00      	add	r7, sp, #0
 80026de:	6078      	str	r0, [r7, #4]
 80026e0:	6039      	str	r1, [r7, #0]
  WRITE_REG(TIMx->CCR4, CompareValue);
 80026e2:	687b      	ldr	r3, [r7, #4]
 80026e4:	683a      	ldr	r2, [r7, #0]
 80026e6:	641a      	str	r2, [r3, #64]	@ 0x40
}
 80026e8:	46c0      	nop			@ (mov r8, r8)
 80026ea:	46bd      	mov	sp, r7
 80026ec:	b002      	add	sp, #8
 80026ee:	bd80      	pop	{r7, pc}

080026f0 <LL_TIM_OC_SetCompareCH5>:
{
 80026f0:	b580      	push	{r7, lr}
 80026f2:	b082      	sub	sp, #8
 80026f4:	af00      	add	r7, sp, #0
 80026f6:	6078      	str	r0, [r7, #4]
 80026f8:	6039      	str	r1, [r7, #0]
  MODIFY_REG(TIMx->CCR5, TIM_CCR5_CCR5, CompareValue);
 80026fa:	687b      	ldr	r3, [r7, #4]
 80026fc:	6d9b      	ldr	r3, [r3, #88]	@ 0x58
 80026fe:	0d1b      	lsrs	r3, r3, #20
 8002700:	051a      	lsls	r2, r3, #20
 8002702:	683b      	ldr	r3, [r7, #0]
 8002704:	431a      	orrs	r2, r3
 8002706:	687b      	ldr	r3, [r7, #4]
 8002708:	659a      	str	r2, [r3, #88]	@ 0x58
}
 800270a:	46c0      	nop			@ (mov r8, r8)
 800270c:	46bd      	mov	sp, r7
 800270e:	b002      	add	sp, #8
 8002710:	bd80      	pop	{r7, pc}

08002712 <LL_TIM_OC_SetCompareCH6>:
{
 8002712:	b580      	push	{r7, lr}
 8002714:	b082      	sub	sp, #8
 8002716:	af00      	add	r7, sp, #0
 8002718:	6078      	str	r0, [r7, #4]
 800271a:	6039      	str	r1, [r7, #0]
  WRITE_REG(TIMx->CCR6, CompareValue);
 800271c:	687b      	ldr	r3, [r7, #4]
 800271e:	683a      	ldr	r2, [r7, #0]
 8002720:	65da      	str	r2, [r3, #92]	@ 0x5c
}
 8002722:	46c0      	nop			@ (mov r8, r8)
 8002724:	46bd      	mov	sp, r7
 8002726:	b002      	add	sp, #8
 8002728:	bd80      	pop	{r7, pc}

0800272a <LL_TIM_GenerateEvent_UPDATE>:
  * @rmtoll EGR          UG            LL_TIM_GenerateEvent_UPDATE
  * @param  TIMx Timer instance
  * @retval None
  */
__STATIC_INLINE void LL_TIM_GenerateEvent_UPDATE(TIM_TypeDef *TIMx)
{
 800272a:	b580      	push	{r7, lr}
 800272c:	b082      	sub	sp, #8
 800272e:	af00      	add	r7, sp, #0
 8002730:	6078      	str	r0, [r7, #4]
  SET_BIT(TIMx->EGR, TIM_EGR_UG);
 8002732:	687b      	ldr	r3, [r7, #4]
 8002734:	695b      	ldr	r3, [r3, #20]
 8002736:	2201      	movs	r2, #1
 8002738:	431a      	orrs	r2, r3
 800273a:	687b      	ldr	r3, [r7, #4]
 800273c:	615a      	str	r2, [r3, #20]
}
 800273e:	46c0      	nop			@ (mov r8, r8)
 8002740:	46bd      	mov	sp, r7
 8002742:	b002      	add	sp, #8
 8002744:	bd80      	pop	{r7, pc}
	...

08002748 <LL_TIM_Init>:
  * @retval An ErrorStatus enumeration value:
  *          - SUCCESS: TIMx registers are de-initialized
  *          - ERROR: not applicable
  */
ErrorStatus LL_TIM_Init(TIM_TypeDef *TIMx, const LL_TIM_InitTypeDef *TIM_InitStruct)
{
 8002748:	b580      	push	{r7, lr}
 800274a:	b084      	sub	sp, #16
 800274c:	af00      	add	r7, sp, #0
 800274e:	6078      	str	r0, [r7, #4]
 8002750:	6039      	str	r1, [r7, #0]
  /* Check the parameters */
  assert_param(IS_TIM_INSTANCE(TIMx));
  assert_param(IS_LL_TIM_COUNTERMODE(TIM_InitStruct->CounterMode));
  assert_param(IS_LL_TIM_CLOCKDIVISION(TIM_InitStruct->ClockDivision));

  tmpcr1 = LL_TIM_ReadReg(TIMx, CR1);
 8002752:	687b      	ldr	r3, [r7, #4]
 8002754:	681b      	ldr	r3, [r3, #0]
 8002756:	60fb      	str	r3, [r7, #12]

  if (IS_TIM_COUNTER_MODE_SELECT_INSTANCE(TIMx))
 8002758:	687b      	ldr	r3, [r7, #4]
 800275a:	4a2c      	ldr	r2, [pc, #176]	@ (800280c <LL_TIM_Init+0xc4>)
 800275c:	4293      	cmp	r3, r2
 800275e:	d003      	beq.n	8002768 <LL_TIM_Init+0x20>
 8002760:	687b      	ldr	r3, [r7, #4]
 8002762:	4a2b      	ldr	r2, [pc, #172]	@ (8002810 <LL_TIM_Init+0xc8>)
 8002764:	4293      	cmp	r3, r2
 8002766:	d107      	bne.n	8002778 <LL_TIM_Init+0x30>
  {
    /* Select the Counter Mode */
    MODIFY_REG(tmpcr1, (TIM_CR1_DIR | TIM_CR1_CMS), TIM_InitStruct->CounterMode);
 8002768:	68fb      	ldr	r3, [r7, #12]
 800276a:	2270      	movs	r2, #112	@ 0x70
 800276c:	4393      	bics	r3, r2
 800276e:	001a      	movs	r2, r3
 8002770:	683b      	ldr	r3, [r7, #0]
 8002772:	685b      	ldr	r3, [r3, #4]
 8002774:	4313      	orrs	r3, r2
 8002776:	60fb      	str	r3, [r7, #12]
  }

  if (IS_TIM_CLOCK_DIVISION_INSTANCE(TIMx))
 8002778:	687b      	ldr	r3, [r7, #4]
 800277a:	4a24      	ldr	r2, [pc, #144]	@ (800280c <LL_TIM_Init+0xc4>)
 800277c:	4293      	cmp	r3, r2
 800277e:	d00f      	beq.n	80027a0 <LL_TIM_Init+0x58>
 8002780:	687b      	ldr	r3, [r7, #4]
 8002782:	4a23      	ldr	r2, [pc, #140]	@ (8002810 <LL_TIM_Init+0xc8>)
 8002784:	4293      	cmp	r3, r2
 8002786:	d00b      	beq.n	80027a0 <LL_TIM_Init+0x58>
 8002788:	687b      	ldr	r3, [r7, #4]
 800278a:	4a22      	ldr	r2, [pc, #136]	@ (8002814 <LL_TIM_Init+0xcc>)
 800278c:	4293      	cmp	r3, r2
 800278e:	d007      	beq.n	80027a0 <LL_TIM_Init+0x58>
 8002790:	687b      	ldr	r3, [r7, #4]
 8002792:	4a21      	ldr	r2, [pc, #132]	@ (8002818 <LL_TIM_Init+0xd0>)
 8002794:	4293      	cmp	r3, r2
 8002796:	d003      	beq.n	80027a0 <LL_TIM_Init+0x58>
 8002798:	687b      	ldr	r3, [r7, #4]
 800279a:	4a20      	ldr	r2, [pc, #128]	@ (800281c <LL_TIM_Init+0xd4>)
 800279c:	4293      	cmp	r3, r2
 800279e:	d106      	bne.n	80027ae <LL_TIM_Init+0x66>
  {
    /* Set the clock division */
    MODIFY_REG(tmpcr1, TIM_CR1_CKD, TIM_InitStruct->ClockDivision);
 80027a0:	68fb      	ldr	r3, [r7, #12]
 80027a2:	4a1f      	ldr	r2, [pc, #124]	@ (8002820 <LL_TIM_Init+0xd8>)
 80027a4:	401a      	ands	r2, r3
 80027a6:	683b      	ldr	r3, [r7, #0]
 80027a8:	68db      	ldr	r3, [r3, #12]
 80027aa:	4313      	orrs	r3, r2
 80027ac:	60fb      	str	r3, [r7, #12]
  }

  /* Write to TIMx CR1 */
  LL_TIM_WriteReg(TIMx, CR1, tmpcr1);
 80027ae:	687b      	ldr	r3, [r7, #4]
 80027b0:	68fa      	ldr	r2, [r7, #12]
 80027b2:	601a      	str	r2, [r3, #0]

  /* Set the Autoreload value */
  LL_TIM_SetAutoReload(TIMx, TIM_InitStruct->Autoreload);
 80027b4:	683b      	ldr	r3, [r7, #0]
 80027b6:	689a      	ldr	r2, [r3, #8]
 80027b8:	687b      	ldr	r3, [r7, #4]
 80027ba:	0011      	movs	r1, r2
 80027bc:	0018      	movs	r0, r3
 80027be:	f7ff ff4f 	bl	8002660 <LL_TIM_SetAutoReload>

  /* Set the Prescaler value */
  LL_TIM_SetPrescaler(TIMx, TIM_InitStruct->Prescaler);
 80027c2:	683b      	ldr	r3, [r7, #0]
 80027c4:	881b      	ldrh	r3, [r3, #0]
 80027c6:	001a      	movs	r2, r3
 80027c8:	687b      	ldr	r3, [r7, #4]
 80027ca:	0011      	movs	r1, r2
 80027cc:	0018      	movs	r0, r3
 80027ce:	f7ff ff3b 	bl	8002648 <LL_TIM_SetPrescaler>

  if (IS_TIM_REPETITION_COUNTER_INSTANCE(TIMx))
 80027d2:	687b      	ldr	r3, [r7, #4]
 80027d4:	4a0d      	ldr	r2, [pc, #52]	@ (800280c <LL_TIM_Init+0xc4>)
 80027d6:	4293      	cmp	r3, r2
 80027d8:	d007      	beq.n	80027ea <LL_TIM_Init+0xa2>
 80027da:	687b      	ldr	r3, [r7, #4]
 80027dc:	4a0e      	ldr	r2, [pc, #56]	@ (8002818 <LL_TIM_Init+0xd0>)
 80027de:	4293      	cmp	r3, r2
 80027e0:	d003      	beq.n	80027ea <LL_TIM_Init+0xa2>
 80027e2:	687b      	ldr	r3, [r7, #4]
 80027e4:	4a0d      	ldr	r2, [pc, #52]	@ (800281c <LL_TIM_Init+0xd4>)
 80027e6:	4293      	cmp	r3, r2
 80027e8:	d106      	bne.n	80027f8 <LL_TIM_Init+0xb0>
  {
    /* Set the Repetition Counter value */
    LL_TIM_SetRepetitionCounter(TIMx, TIM_InitStruct->RepetitionCounter);
 80027ea:	683b      	ldr	r3, [r7, #0]
 80027ec:	691a      	ldr	r2, [r3, #16]
 80027ee:	687b      	ldr	r3, [r7, #4]
 80027f0:	0011      	movs	r1, r2
 80027f2:	0018      	movs	r0, r3
 80027f4:	f7ff ff40 	bl	8002678 <LL_TIM_SetRepetitionCounter>
  }

  /* Generate an update event to reload the Prescaler
     and the repetition counter value (if applicable) immediately */
  LL_TIM_GenerateEvent_UPDATE(TIMx);
 80027f8:	687b      	ldr	r3, [r7, #4]
 80027fa:	0018      	movs	r0, r3
 80027fc:	f7ff ff95 	bl	800272a <LL_TIM_GenerateEvent_UPDATE>

  return SUCCESS;
 8002800:	2300      	movs	r3, #0
}
 8002802:	0018      	movs	r0, r3
 8002804:	46bd      	mov	sp, r7
 8002806:	b004      	add	sp, #16
 8002808:	bd80      	pop	{r7, pc}
 800280a:	46c0      	nop			@ (mov r8, r8)
 800280c:	40012c00 	.word	0x40012c00
 8002810:	40000400 	.word	0x40000400
 8002814:	40002000 	.word	0x40002000
 8002818:	40014400 	.word	0x40014400
 800281c:	40014800 	.word	0x40014800
 8002820:	fffffcff 	.word	0xfffffcff

08002824 <LL_TIM_OC_Init>:
  * @retval An ErrorStatus enumeration value:
  *          - SUCCESS: TIMx output channel is initialized
  *          - ERROR: TIMx output channel is not initialized
  */
ErrorStatus LL_TIM_OC_Init(TIM_TypeDef *TIMx, uint32_t Channel, const LL_TIM_OC_InitTypeDef *TIM_OC_InitStruct)
{
 8002824:	b590      	push	{r4, r7, lr}
 8002826:	b087      	sub	sp, #28
 8002828:	af00      	add	r7, sp, #0
 800282a:	60f8      	str	r0, [r7, #12]
 800282c:	60b9      	str	r1, [r7, #8]
 800282e:	607a      	str	r2, [r7, #4]
  ErrorStatus result = ERROR;
 8002830:	2317      	movs	r3, #23
 8002832:	18fb      	adds	r3, r7, r3
 8002834:	2201      	movs	r2, #1
 8002836:	701a      	strb	r2, [r3, #0]

  switch (Channel)
 8002838:	68ba      	ldr	r2, [r7, #8]
 800283a:	2380      	movs	r3, #128	@ 0x80
 800283c:	035b      	lsls	r3, r3, #13
 800283e:	429a      	cmp	r2, r3
 8002840:	d060      	beq.n	8002904 <LL_TIM_OC_Init+0xe0>
 8002842:	68ba      	ldr	r2, [r7, #8]
 8002844:	2380      	movs	r3, #128	@ 0x80
 8002846:	035b      	lsls	r3, r3, #13
 8002848:	429a      	cmp	r2, r3
 800284a:	d866      	bhi.n	800291a <LL_TIM_OC_Init+0xf6>
 800284c:	68ba      	ldr	r2, [r7, #8]
 800284e:	2380      	movs	r3, #128	@ 0x80
 8002850:	025b      	lsls	r3, r3, #9
 8002852:	429a      	cmp	r2, r3
 8002854:	d04b      	beq.n	80028ee <LL_TIM_OC_Init+0xca>
 8002856:	68ba      	ldr	r2, [r7, #8]
 8002858:	2380      	movs	r3, #128	@ 0x80
 800285a:	025b      	lsls	r3, r3, #9
 800285c:	429a      	cmp	r2, r3
 800285e:	d85c      	bhi.n	800291a <LL_TIM_OC_Init+0xf6>
 8002860:	68ba      	ldr	r2, [r7, #8]
 8002862:	2380      	movs	r3, #128	@ 0x80
 8002864:	015b      	lsls	r3, r3, #5
 8002866:	429a      	cmp	r2, r3
 8002868:	d036      	beq.n	80028d8 <LL_TIM_OC_Init+0xb4>
 800286a:	68ba      	ldr	r2, [r7, #8]
 800286c:	2380      	movs	r3, #128	@ 0x80
 800286e:	015b      	lsls	r3, r3, #5
 8002870:	429a      	cmp	r2, r3
 8002872:	d852      	bhi.n	800291a <LL_TIM_OC_Init+0xf6>
 8002874:	68ba      	ldr	r2, [r7, #8]
 8002876:	2380      	movs	r3, #128	@ 0x80
 8002878:	005b      	lsls	r3, r3, #1
 800287a:	429a      	cmp	r2, r3
 800287c:	d021      	beq.n	80028c2 <LL_TIM_OC_Init+0x9e>
 800287e:	68ba      	ldr	r2, [r7, #8]
 8002880:	2380      	movs	r3, #128	@ 0x80
 8002882:	005b      	lsls	r3, r3, #1
 8002884:	429a      	cmp	r2, r3
 8002886:	d848      	bhi.n	800291a <LL_TIM_OC_Init+0xf6>
 8002888:	68bb      	ldr	r3, [r7, #8]
 800288a:	2b01      	cmp	r3, #1
 800288c:	d003      	beq.n	8002896 <LL_TIM_OC_Init+0x72>
 800288e:	68bb      	ldr	r3, [r7, #8]
 8002890:	2b10      	cmp	r3, #16
 8002892:	d00b      	beq.n	80028ac <LL_TIM_OC_Init+0x88>
      break;
    case LL_TIM_CHANNEL_CH6:
      result = OC6Config(TIMx, TIM_OC_InitStruct);
      break;
    default:
      break;
 8002894:	e041      	b.n	800291a <LL_TIM_OC_Init+0xf6>
      result = OC1Config(TIMx, TIM_OC_InitStruct);
 8002896:	2317      	movs	r3, #23
 8002898:	18fc      	adds	r4, r7, r3
 800289a:	687a      	ldr	r2, [r7, #4]
 800289c:	68fb      	ldr	r3, [r7, #12]
 800289e:	0011      	movs	r1, r2
 80028a0:	0018      	movs	r0, r3
 80028a2:	f000 f8cb 	bl	8002a3c <OC1Config>
 80028a6:	0003      	movs	r3, r0
 80028a8:	7023      	strb	r3, [r4, #0]
      break;
 80028aa:	e037      	b.n	800291c <LL_TIM_OC_Init+0xf8>
      result = OC2Config(TIMx, TIM_OC_InitStruct);
 80028ac:	2317      	movs	r3, #23
 80028ae:	18fc      	adds	r4, r7, r3
 80028b0:	687a      	ldr	r2, [r7, #4]
 80028b2:	68fb      	ldr	r3, [r7, #12]
 80028b4:	0011      	movs	r1, r2
 80028b6:	0018      	movs	r0, r3
 80028b8:	f000 f93e 	bl	8002b38 <OC2Config>
 80028bc:	0003      	movs	r3, r0
 80028be:	7023      	strb	r3, [r4, #0]
      break;
 80028c0:	e02c      	b.n	800291c <LL_TIM_OC_Init+0xf8>
      result = OC3Config(TIMx, TIM_OC_InitStruct);
 80028c2:	2317      	movs	r3, #23
 80028c4:	18fc      	adds	r4, r7, r3
 80028c6:	687a      	ldr	r2, [r7, #4]
 80028c8:	68fb      	ldr	r3, [r7, #12]
 80028ca:	0011      	movs	r1, r2
 80028cc:	0018      	movs	r0, r3
 80028ce:	f000 f9b7 	bl	8002c40 <OC3Config>
 80028d2:	0003      	movs	r3, r0
 80028d4:	7023      	strb	r3, [r4, #0]
      break;
 80028d6:	e021      	b.n	800291c <LL_TIM_OC_Init+0xf8>
      result = OC4Config(TIMx, TIM_OC_InitStruct);
 80028d8:	2317      	movs	r3, #23
 80028da:	18fc      	adds	r4, r7, r3
 80028dc:	687a      	ldr	r2, [r7, #4]
 80028de:	68fb      	ldr	r3, [r7, #12]
 80028e0:	0011      	movs	r1, r2
 80028e2:	0018      	movs	r0, r3
 80028e4:	f000 fa30 	bl	8002d48 <OC4Config>
 80028e8:	0003      	movs	r3, r0
 80028ea:	7023      	strb	r3, [r4, #0]
      break;
 80028ec:	e016      	b.n	800291c <LL_TIM_OC_Init+0xf8>
      result = OC5Config(TIMx, TIM_OC_InitStruct);
 80028ee:	2317      	movs	r3, #23
 80028f0:	18fc      	adds	r4, r7, r3
 80028f2:	687a      	ldr	r2, [r7, #4]
 80028f4:	68fb      	ldr	r3, [r7, #12]
 80028f6:	0011      	movs	r1, r2
 80028f8:	0018      	movs	r0, r3
 80028fa:	f000 fa8f 	bl	8002e1c <OC5Config>
 80028fe:	0003      	movs	r3, r0
 8002900:	7023      	strb	r3, [r4, #0]
      break;
 8002902:	e00b      	b.n	800291c <LL_TIM_OC_Init+0xf8>
      result = OC6Config(TIMx, TIM_OC_InitStruct);
 8002904:	2317      	movs	r3, #23
 8002906:	18fc      	adds	r4, r7, r3
 8002908:	687a      	ldr	r2, [r7, #4]
 800290a:	68fb      	ldr	r3, [r7, #12]
 800290c:	0011      	movs	r1, r2
 800290e:	0018      	movs	r0, r3
 8002910:	f000 fae0 	bl	8002ed4 <OC6Config>
 8002914:	0003      	movs	r3, r0
 8002916:	7023      	strb	r3, [r4, #0]
      break;
 8002918:	e000      	b.n	800291c <LL_TIM_OC_Init+0xf8>
      break;
 800291a:	46c0      	nop			@ (mov r8, r8)
  }

  return result;
 800291c:	2317      	movs	r3, #23
 800291e:	18fb      	adds	r3, r7, r3
 8002920:	781b      	ldrb	r3, [r3, #0]
}
 8002922:	0018      	movs	r0, r3
 8002924:	46bd      	mov	sp, r7
 8002926:	b007      	add	sp, #28
 8002928:	bd90      	pop	{r4, r7, pc}
	...

0800292c <LL_TIM_BDTR_Init>:
  * @retval An ErrorStatus enumeration value:
  *          - SUCCESS: Break and Dead Time is initialized
  *          - ERROR: not applicable
  */
ErrorStatus LL_TIM_BDTR_Init(TIM_TypeDef *TIMx, const LL_TIM_BDTR_InitTypeDef *TIM_BDTRInitStruct)
{
 800292c:	b580      	push	{r7, lr}
 800292e:	b084      	sub	sp, #16
 8002930:	af00      	add	r7, sp, #0
 8002932:	6078      	str	r0, [r7, #4]
 8002934:	6039      	str	r1, [r7, #0]
  uint32_t tmpbdtr = 0;
 8002936:	2300      	movs	r3, #0
 8002938:	60fb      	str	r3, [r7, #12]

  /* Set the Lock level, the Break enable Bit and the Polarity, the OSSR State,
  the OSSI State, the dead time value and the Automatic Output Enable Bit */

  /* Set the BDTR bits */
  MODIFY_REG(tmpbdtr, TIM_BDTR_DTG, TIM_BDTRInitStruct->DeadTime);
 800293a:	68fb      	ldr	r3, [r7, #12]
 800293c:	22ff      	movs	r2, #255	@ 0xff
 800293e:	4393      	bics	r3, r2
 8002940:	683a      	ldr	r2, [r7, #0]
 8002942:	7b12      	ldrb	r2, [r2, #12]
 8002944:	4313      	orrs	r3, r2
 8002946:	60fb      	str	r3, [r7, #12]
  MODIFY_REG(tmpbdtr, TIM_BDTR_LOCK, TIM_BDTRInitStruct->LockLevel);
 8002948:	68fb      	ldr	r3, [r7, #12]
 800294a:	4a2f      	ldr	r2, [pc, #188]	@ (8002a08 <LL_TIM_BDTR_Init+0xdc>)
 800294c:	401a      	ands	r2, r3
 800294e:	683b      	ldr	r3, [r7, #0]
 8002950:	689b      	ldr	r3, [r3, #8]
 8002952:	4313      	orrs	r3, r2
 8002954:	60fb      	str	r3, [r7, #12]
  MODIFY_REG(tmpbdtr, TIM_BDTR_OSSI, TIM_BDTRInitStruct->OSSIState);
 8002956:	68fb      	ldr	r3, [r7, #12]
 8002958:	4a2c      	ldr	r2, [pc, #176]	@ (8002a0c <LL_TIM_BDTR_Init+0xe0>)
 800295a:	401a      	ands	r2, r3
 800295c:	683b      	ldr	r3, [r7, #0]
 800295e:	685b      	ldr	r3, [r3, #4]
 8002960:	4313      	orrs	r3, r2
 8002962:	60fb      	str	r3, [r7, #12]
  MODIFY_REG(tmpbdtr, TIM_BDTR_OSSR, TIM_BDTRInitStruct->OSSRState);
 8002964:	68fb      	ldr	r3, [r7, #12]
 8002966:	4a2a      	ldr	r2, [pc, #168]	@ (8002a10 <LL_TIM_BDTR_Init+0xe4>)
 8002968:	401a      	ands	r2, r3
 800296a:	683b      	ldr	r3, [r7, #0]
 800296c:	681b      	ldr	r3, [r3, #0]
 800296e:	4313      	orrs	r3, r2
 8002970:	60fb      	str	r3, [r7, #12]
  MODIFY_REG(tmpbdtr, TIM_BDTR_BKE, TIM_BDTRInitStruct->BreakState);
 8002972:	68fb      	ldr	r3, [r7, #12]
 8002974:	4a27      	ldr	r2, [pc, #156]	@ (8002a14 <LL_TIM_BDTR_Init+0xe8>)
 8002976:	4013      	ands	r3, r2
 8002978:	683a      	ldr	r2, [r7, #0]
 800297a:	89d2      	ldrh	r2, [r2, #14]
 800297c:	4313      	orrs	r3, r2
 800297e:	60fb      	str	r3, [r7, #12]
  MODIFY_REG(tmpbdtr, TIM_BDTR_BKP, TIM_BDTRInitStruct->BreakPolarity);
 8002980:	68fb      	ldr	r3, [r7, #12]
 8002982:	4a25      	ldr	r2, [pc, #148]	@ (8002a18 <LL_TIM_BDTR_Init+0xec>)
 8002984:	401a      	ands	r2, r3
 8002986:	683b      	ldr	r3, [r7, #0]
 8002988:	691b      	ldr	r3, [r3, #16]
 800298a:	4313      	orrs	r3, r2
 800298c:	60fb      	str	r3, [r7, #12]
  MODIFY_REG(tmpbdtr, TIM_BDTR_AOE, TIM_BDTRInitStruct->AutomaticOutput);
 800298e:	68fb      	ldr	r3, [r7, #12]
 8002990:	4a22      	ldr	r2, [pc, #136]	@ (8002a1c <LL_TIM_BDTR_Init+0xf0>)
 8002992:	401a      	ands	r2, r3
 8002994:	683b      	ldr	r3, [r7, #0]
 8002996:	6adb      	ldr	r3, [r3, #44]	@ 0x2c
 8002998:	4313      	orrs	r3, r2
 800299a:	60fb      	str	r3, [r7, #12]
  MODIFY_REG(tmpbdtr, TIM_BDTR_BKF, TIM_BDTRInitStruct->BreakFilter);
 800299c:	68fb      	ldr	r3, [r7, #12]
 800299e:	4a20      	ldr	r2, [pc, #128]	@ (8002a20 <LL_TIM_BDTR_Init+0xf4>)
 80029a0:	401a      	ands	r2, r3
 80029a2:	683b      	ldr	r3, [r7, #0]
 80029a4:	695b      	ldr	r3, [r3, #20]
 80029a6:	4313      	orrs	r3, r2
 80029a8:	60fb      	str	r3, [r7, #12]
  MODIFY_REG(tmpbdtr, TIM_BDTR_BKBID, TIM_BDTRInitStruct->BreakAFMode);
 80029aa:	68fb      	ldr	r3, [r7, #12]
 80029ac:	4a1d      	ldr	r2, [pc, #116]	@ (8002a24 <LL_TIM_BDTR_Init+0xf8>)
 80029ae:	401a      	ands	r2, r3
 80029b0:	683b      	ldr	r3, [r7, #0]
 80029b2:	699b      	ldr	r3, [r3, #24]
 80029b4:	4313      	orrs	r3, r2
 80029b6:	60fb      	str	r3, [r7, #12]

  if (IS_TIM_BKIN2_INSTANCE(TIMx))
 80029b8:	687b      	ldr	r3, [r7, #4]
 80029ba:	4a1b      	ldr	r2, [pc, #108]	@ (8002a28 <LL_TIM_BDTR_Init+0xfc>)
 80029bc:	4293      	cmp	r3, r2
 80029be:	d11b      	bne.n	80029f8 <LL_TIM_BDTR_Init+0xcc>
    assert_param(IS_LL_TIM_BREAK2_POLARITY(TIM_BDTRInitStruct->Break2Polarity));
    assert_param(IS_LL_TIM_BREAK2_FILTER(TIM_BDTRInitStruct->Break2Filter));
    assert_param(IS_LL_TIM_BREAK2_AFMODE(TIM_BDTRInitStruct->Break2AFMode));

    /* Set the BREAK2 input related BDTR bit-fields */
    MODIFY_REG(tmpbdtr, TIM_BDTR_BK2F, (TIM_BDTRInitStruct->Break2Filter));
 80029c0:	68fb      	ldr	r3, [r7, #12]
 80029c2:	4a1a      	ldr	r2, [pc, #104]	@ (8002a2c <LL_TIM_BDTR_Init+0x100>)
 80029c4:	401a      	ands	r2, r3
 80029c6:	683b      	ldr	r3, [r7, #0]
 80029c8:	6a5b      	ldr	r3, [r3, #36]	@ 0x24
 80029ca:	4313      	orrs	r3, r2
 80029cc:	60fb      	str	r3, [r7, #12]
    MODIFY_REG(tmpbdtr, TIM_BDTR_BK2E, TIM_BDTRInitStruct->Break2State);
 80029ce:	68fb      	ldr	r3, [r7, #12]
 80029d0:	4a17      	ldr	r2, [pc, #92]	@ (8002a30 <LL_TIM_BDTR_Init+0x104>)
 80029d2:	401a      	ands	r2, r3
 80029d4:	683b      	ldr	r3, [r7, #0]
 80029d6:	69db      	ldr	r3, [r3, #28]
 80029d8:	4313      	orrs	r3, r2
 80029da:	60fb      	str	r3, [r7, #12]
    MODIFY_REG(tmpbdtr, TIM_BDTR_BK2P, TIM_BDTRInitStruct->Break2Polarity);
 80029dc:	68fb      	ldr	r3, [r7, #12]
 80029de:	4a15      	ldr	r2, [pc, #84]	@ (8002a34 <LL_TIM_BDTR_Init+0x108>)
 80029e0:	401a      	ands	r2, r3
 80029e2:	683b      	ldr	r3, [r7, #0]
 80029e4:	6a1b      	ldr	r3, [r3, #32]
 80029e6:	4313      	orrs	r3, r2
 80029e8:	60fb      	str	r3, [r7, #12]
    MODIFY_REG(tmpbdtr, TIM_BDTR_BK2BID, TIM_BDTRInitStruct->Break2AFMode);
 80029ea:	68fb      	ldr	r3, [r7, #12]
 80029ec:	4a12      	ldr	r2, [pc, #72]	@ (8002a38 <LL_TIM_BDTR_Init+0x10c>)
 80029ee:	401a      	ands	r2, r3
 80029f0:	683b      	ldr	r3, [r7, #0]
 80029f2:	6a9b      	ldr	r3, [r3, #40]	@ 0x28
 80029f4:	4313      	orrs	r3, r2
 80029f6:	60fb      	str	r3, [r7, #12]
  }

  /* Set TIMx_BDTR */
  LL_TIM_WriteReg(TIMx, BDTR, tmpbdtr);
 80029f8:	687b      	ldr	r3, [r7, #4]
 80029fa:	68fa      	ldr	r2, [r7, #12]
 80029fc:	645a      	str	r2, [r3, #68]	@ 0x44

  return SUCCESS;
 80029fe:	2300      	movs	r3, #0
}
 8002a00:	0018      	movs	r0, r3
 8002a02:	46bd      	mov	sp, r7
 8002a04:	b004      	add	sp, #16
 8002a06:	bd80      	pop	{r7, pc}
 8002a08:	fffffcff 	.word	0xfffffcff
 8002a0c:	fffffbff 	.word	0xfffffbff
 8002a10:	fffff7ff 	.word	0xfffff7ff
 8002a14:	ffffefff 	.word	0xffffefff
 8002a18:	ffffdfff 	.word	0xffffdfff
 8002a1c:	ffffbfff 	.word	0xffffbfff
 8002a20:	fff0ffff 	.word	0xfff0ffff
 8002a24:	efffffff 	.word	0xefffffff
 8002a28:	40012c00 	.word	0x40012c00
 8002a2c:	ff0fffff 	.word	0xff0fffff
 8002a30:	feffffff 	.word	0xfeffffff
 8002a34:	fdffffff 	.word	0xfdffffff
 8002a38:	dfffffff 	.word	0xdfffffff

08002a3c <OC1Config>:
  * @retval An ErrorStatus enumeration value:
  *          - SUCCESS: TIMx registers are de-initialized
  *          - ERROR: not applicable
  */
static ErrorStatus OC1Config(TIM_TypeDef *TIMx, const LL_TIM_OC_InitTypeDef *TIM_OCInitStruct)
{
 8002a3c:	b580      	push	{r7, lr}
 8002a3e:	b086      	sub	sp, #24
 8002a40:	af00      	add	r7, sp, #0
 8002a42:	6078      	str	r0, [r7, #4]
 8002a44:	6039      	str	r1, [r7, #0]
  assert_param(IS_LL_TIM_OCMODE(TIM_OCInitStruct->OCMode));
  assert_param(IS_LL_TIM_OCSTATE(TIM_OCInitStruct->OCState));
  assert_param(IS_LL_TIM_OCPOLARITY(TIM_OCInitStruct->OCPolarity));

  /* Disable the Channel 1: Reset the CC1E Bit */
  CLEAR_BIT(TIMx->CCER, TIM_CCER_CC1E);
 8002a46:	687b      	ldr	r3, [r7, #4]
 8002a48:	6a1b      	ldr	r3, [r3, #32]
 8002a4a:	2201      	movs	r2, #1
 8002a4c:	4393      	bics	r3, r2
 8002a4e:	001a      	movs	r2, r3
 8002a50:	687b      	ldr	r3, [r7, #4]
 8002a52:	621a      	str	r2, [r3, #32]

  /* Get the TIMx CCER register value */
  tmpccer = LL_TIM_ReadReg(TIMx, CCER);
 8002a54:	687b      	ldr	r3, [r7, #4]
 8002a56:	6a1b      	ldr	r3, [r3, #32]
 8002a58:	617b      	str	r3, [r7, #20]

  /* Get the TIMx CR2 register value */
  tmpcr2 = LL_TIM_ReadReg(TIMx, CR2);
 8002a5a:	687b      	ldr	r3, [r7, #4]
 8002a5c:	685b      	ldr	r3, [r3, #4]
 8002a5e:	613b      	str	r3, [r7, #16]

  /* Get the TIMx CCMR1 register value */
  tmpccmr1 = LL_TIM_ReadReg(TIMx, CCMR1);
 8002a60:	687b      	ldr	r3, [r7, #4]
 8002a62:	699b      	ldr	r3, [r3, #24]
 8002a64:	60fb      	str	r3, [r7, #12]

  /* Reset Capture/Compare selection Bits */
  CLEAR_BIT(tmpccmr1, TIM_CCMR1_CC1S);
 8002a66:	68fb      	ldr	r3, [r7, #12]
 8002a68:	2203      	movs	r2, #3
 8002a6a:	4393      	bics	r3, r2
 8002a6c:	60fb      	str	r3, [r7, #12]

  /* Set the Output Compare Mode */
  MODIFY_REG(tmpccmr1, TIM_CCMR1_OC1M, TIM_OCInitStruct->OCMode);
 8002a6e:	68fb      	ldr	r3, [r7, #12]
 8002a70:	4a2b      	ldr	r2, [pc, #172]	@ (8002b20 <OC1Config+0xe4>)
 8002a72:	401a      	ands	r2, r3
 8002a74:	683b      	ldr	r3, [r7, #0]
 8002a76:	681b      	ldr	r3, [r3, #0]
 8002a78:	4313      	orrs	r3, r2
 8002a7a:	60fb      	str	r3, [r7, #12]

  /* Set the Output Compare Polarity */
  MODIFY_REG(tmpccer, TIM_CCER_CC1P, TIM_OCInitStruct->OCPolarity);
 8002a7c:	697b      	ldr	r3, [r7, #20]
 8002a7e:	2202      	movs	r2, #2
 8002a80:	4393      	bics	r3, r2
 8002a82:	001a      	movs	r2, r3
 8002a84:	683b      	ldr	r3, [r7, #0]
 8002a86:	691b      	ldr	r3, [r3, #16]
 8002a88:	4313      	orrs	r3, r2
 8002a8a:	617b      	str	r3, [r7, #20]

  /* Set the Output State */
  MODIFY_REG(tmpccer, TIM_CCER_CC1E, TIM_OCInitStruct->OCState);
 8002a8c:	697b      	ldr	r3, [r7, #20]
 8002a8e:	2201      	movs	r2, #1
 8002a90:	4393      	bics	r3, r2
 8002a92:	001a      	movs	r2, r3
 8002a94:	683b      	ldr	r3, [r7, #0]
 8002a96:	685b      	ldr	r3, [r3, #4]
 8002a98:	4313      	orrs	r3, r2
 8002a9a:	617b      	str	r3, [r7, #20]

  if (IS_TIM_BREAK_INSTANCE(TIMx))
 8002a9c:	687b      	ldr	r3, [r7, #4]
 8002a9e:	4a21      	ldr	r2, [pc, #132]	@ (8002b24 <OC1Config+0xe8>)
 8002aa0:	4293      	cmp	r3, r2
 8002aa2:	d007      	beq.n	8002ab4 <OC1Config+0x78>
 8002aa4:	687b      	ldr	r3, [r7, #4]
 8002aa6:	4a20      	ldr	r2, [pc, #128]	@ (8002b28 <OC1Config+0xec>)
 8002aa8:	4293      	cmp	r3, r2
 8002aaa:	d003      	beq.n	8002ab4 <OC1Config+0x78>
 8002aac:	687b      	ldr	r3, [r7, #4]
 8002aae:	4a1f      	ldr	r2, [pc, #124]	@ (8002b2c <OC1Config+0xf0>)
 8002ab0:	4293      	cmp	r3, r2
 8002ab2:	d120      	bne.n	8002af6 <OC1Config+0xba>
    assert_param(IS_LL_TIM_OCSTATE(TIM_OCInitStruct->OCNState));
    assert_param(IS_LL_TIM_OCPOLARITY(TIM_OCInitStruct->OCNPolarity));
    assert_param(IS_LL_TIM_OCIDLESTATE(TIM_OCInitStruct->OCNIdleState));

    /* Set the complementary output Polarity */
    MODIFY_REG(tmpccer, TIM_CCER_CC1NP, TIM_OCInitStruct->OCNPolarity << 2U);
 8002ab4:	697b      	ldr	r3, [r7, #20]
 8002ab6:	2208      	movs	r2, #8
 8002ab8:	4393      	bics	r3, r2
 8002aba:	001a      	movs	r2, r3
 8002abc:	683b      	ldr	r3, [r7, #0]
 8002abe:	695b      	ldr	r3, [r3, #20]
 8002ac0:	009b      	lsls	r3, r3, #2
 8002ac2:	4313      	orrs	r3, r2
 8002ac4:	617b      	str	r3, [r7, #20]

    /* Set the complementary output State */
    MODIFY_REG(tmpccer, TIM_CCER_CC1NE, TIM_OCInitStruct->OCNState << 2U);
 8002ac6:	697b      	ldr	r3, [r7, #20]
 8002ac8:	2204      	movs	r2, #4
 8002aca:	4393      	bics	r3, r2
 8002acc:	001a      	movs	r2, r3
 8002ace:	683b      	ldr	r3, [r7, #0]
 8002ad0:	689b      	ldr	r3, [r3, #8]
 8002ad2:	009b      	lsls	r3, r3, #2
 8002ad4:	4313      	orrs	r3, r2
 8002ad6:	617b      	str	r3, [r7, #20]

    /* Set the Output Idle state */
    MODIFY_REG(tmpcr2, TIM_CR2_OIS1, TIM_OCInitStruct->OCIdleState);
 8002ad8:	693b      	ldr	r3, [r7, #16]
 8002ada:	4a15      	ldr	r2, [pc, #84]	@ (8002b30 <OC1Config+0xf4>)
 8002adc:	401a      	ands	r2, r3
 8002ade:	683b      	ldr	r3, [r7, #0]
 8002ae0:	699b      	ldr	r3, [r3, #24]
 8002ae2:	4313      	orrs	r3, r2
 8002ae4:	613b      	str	r3, [r7, #16]

    /* Set the complementary output Idle state */
    MODIFY_REG(tmpcr2, TIM_CR2_OIS1N, TIM_OCInitStruct->OCNIdleState << 1U);
 8002ae6:	693b      	ldr	r3, [r7, #16]
 8002ae8:	4a12      	ldr	r2, [pc, #72]	@ (8002b34 <OC1Config+0xf8>)
 8002aea:	401a      	ands	r2, r3
 8002aec:	683b      	ldr	r3, [r7, #0]
 8002aee:	69db      	ldr	r3, [r3, #28]
 8002af0:	005b      	lsls	r3, r3, #1
 8002af2:	4313      	orrs	r3, r2
 8002af4:	613b      	str	r3, [r7, #16]
  }

  /* Write to TIMx CR2 */
  LL_TIM_WriteReg(TIMx, CR2, tmpcr2);
 8002af6:	687b      	ldr	r3, [r7, #4]
 8002af8:	693a      	ldr	r2, [r7, #16]
 8002afa:	605a      	str	r2, [r3, #4]

  /* Write to TIMx CCMR1 */
  LL_TIM_WriteReg(TIMx, CCMR1, tmpccmr1);
 8002afc:	687b      	ldr	r3, [r7, #4]
 8002afe:	68fa      	ldr	r2, [r7, #12]
 8002b00:	619a      	str	r2, [r3, #24]

  /* Set the Capture Compare Register value */
  LL_TIM_OC_SetCompareCH1(TIMx, TIM_OCInitStruct->CompareValue);
 8002b02:	683b      	ldr	r3, [r7, #0]
 8002b04:	68da      	ldr	r2, [r3, #12]
 8002b06:	687b      	ldr	r3, [r7, #4]
 8002b08:	0011      	movs	r1, r2
 8002b0a:	0018      	movs	r0, r3
 8002b0c:	f7ff fdc0 	bl	8002690 <LL_TIM_OC_SetCompareCH1>

  /* Write to TIMx CCER */
  LL_TIM_WriteReg(TIMx, CCER, tmpccer);
 8002b10:	687b      	ldr	r3, [r7, #4]
 8002b12:	697a      	ldr	r2, [r7, #20]
 8002b14:	621a      	str	r2, [r3, #32]

  return SUCCESS;
 8002b16:	2300      	movs	r3, #0
}
 8002b18:	0018      	movs	r0, r3
 8002b1a:	46bd      	mov	sp, r7
 8002b1c:	b006      	add	sp, #24
 8002b1e:	bd80      	pop	{r7, pc}
 8002b20:	fffeff8f 	.word	0xfffeff8f
 8002b24:	40012c00 	.word	0x40012c00
 8002b28:	40014400 	.word	0x40014400
 8002b2c:	40014800 	.word	0x40014800
 8002b30:	fffffeff 	.word	0xfffffeff
 8002b34:	fffffdff 	.word	0xfffffdff

08002b38 <OC2Config>:
  * @retval An ErrorStatus enumeration value:
  *          - SUCCESS: TIMx registers are de-initialized
  *          - ERROR: not applicable
  */
static ErrorStatus OC2Config(TIM_TypeDef *TIMx, const LL_TIM_OC_InitTypeDef *TIM_OCInitStruct)
{
 8002b38:	b580      	push	{r7, lr}
 8002b3a:	b086      	sub	sp, #24
 8002b3c:	af00      	add	r7, sp, #0
 8002b3e:	6078      	str	r0, [r7, #4]
 8002b40:	6039      	str	r1, [r7, #0]
  assert_param(IS_LL_TIM_OCMODE(TIM_OCInitStruct->OCMode));
  assert_param(IS_LL_TIM_OCSTATE(TIM_OCInitStruct->OCState));
  assert_param(IS_LL_TIM_OCPOLARITY(TIM_OCInitStruct->OCPolarity));

  /* Disable the Channel 2: Reset the CC2E Bit */
  CLEAR_BIT(TIMx->CCER, TIM_CCER_CC2E);
 8002b42:	687b      	ldr	r3, [r7, #4]
 8002b44:	6a1b      	ldr	r3, [r3, #32]
 8002b46:	2210      	movs	r2, #16
 8002b48:	4393      	bics	r3, r2
 8002b4a:	001a      	movs	r2, r3
 8002b4c:	687b      	ldr	r3, [r7, #4]
 8002b4e:	621a      	str	r2, [r3, #32]

  /* Get the TIMx CCER register value */
  tmpccer =  LL_TIM_ReadReg(TIMx, CCER);
 8002b50:	687b      	ldr	r3, [r7, #4]
 8002b52:	6a1b      	ldr	r3, [r3, #32]
 8002b54:	617b      	str	r3, [r7, #20]

  /* Get the TIMx CR2 register value */
  tmpcr2 = LL_TIM_ReadReg(TIMx, CR2);
 8002b56:	687b      	ldr	r3, [r7, #4]
 8002b58:	685b      	ldr	r3, [r3, #4]
 8002b5a:	613b      	str	r3, [r7, #16]

  /* Get the TIMx CCMR1 register value */
  tmpccmr1 = LL_TIM_ReadReg(TIMx, CCMR1);
 8002b5c:	687b      	ldr	r3, [r7, #4]
 8002b5e:	699b      	ldr	r3, [r3, #24]
 8002b60:	60fb      	str	r3, [r7, #12]

  /* Reset Capture/Compare selection Bits */
  CLEAR_BIT(tmpccmr1, TIM_CCMR1_CC2S);
 8002b62:	68fb      	ldr	r3, [r7, #12]
 8002b64:	4a2f      	ldr	r2, [pc, #188]	@ (8002c24 <OC2Config+0xec>)
 8002b66:	4013      	ands	r3, r2
 8002b68:	60fb      	str	r3, [r7, #12]

  /* Select the Output Compare Mode */
  MODIFY_REG(tmpccmr1, TIM_CCMR1_OC2M, TIM_OCInitStruct->OCMode << 8U);
 8002b6a:	68fb      	ldr	r3, [r7, #12]
 8002b6c:	4a2e      	ldr	r2, [pc, #184]	@ (8002c28 <OC2Config+0xf0>)
 8002b6e:	401a      	ands	r2, r3
 8002b70:	683b      	ldr	r3, [r7, #0]
 8002b72:	681b      	ldr	r3, [r3, #0]
 8002b74:	021b      	lsls	r3, r3, #8
 8002b76:	4313      	orrs	r3, r2
 8002b78:	60fb      	str	r3, [r7, #12]

  /* Set the Output Compare Polarity */
  MODIFY_REG(tmpccer, TIM_CCER_CC2P, TIM_OCInitStruct->OCPolarity << 4U);
 8002b7a:	697b      	ldr	r3, [r7, #20]
 8002b7c:	2220      	movs	r2, #32
 8002b7e:	4393      	bics	r3, r2
 8002b80:	001a      	movs	r2, r3
 8002b82:	683b      	ldr	r3, [r7, #0]
 8002b84:	691b      	ldr	r3, [r3, #16]
 8002b86:	011b      	lsls	r3, r3, #4
 8002b88:	4313      	orrs	r3, r2
 8002b8a:	617b      	str	r3, [r7, #20]

  /* Set the Output State */
  MODIFY_REG(tmpccer, TIM_CCER_CC2E, TIM_OCInitStruct->OCState << 4U);
 8002b8c:	697b      	ldr	r3, [r7, #20]
 8002b8e:	2210      	movs	r2, #16
 8002b90:	4393      	bics	r3, r2
 8002b92:	001a      	movs	r2, r3
 8002b94:	683b      	ldr	r3, [r7, #0]
 8002b96:	685b      	ldr	r3, [r3, #4]
 8002b98:	011b      	lsls	r3, r3, #4
 8002b9a:	4313      	orrs	r3, r2
 8002b9c:	617b      	str	r3, [r7, #20]

  if (IS_TIM_BREAK_INSTANCE(TIMx))
 8002b9e:	687b      	ldr	r3, [r7, #4]
 8002ba0:	4a22      	ldr	r2, [pc, #136]	@ (8002c2c <OC2Config+0xf4>)
 8002ba2:	4293      	cmp	r3, r2
 8002ba4:	d007      	beq.n	8002bb6 <OC2Config+0x7e>
 8002ba6:	687b      	ldr	r3, [r7, #4]
 8002ba8:	4a21      	ldr	r2, [pc, #132]	@ (8002c30 <OC2Config+0xf8>)
 8002baa:	4293      	cmp	r3, r2
 8002bac:	d003      	beq.n	8002bb6 <OC2Config+0x7e>
 8002bae:	687b      	ldr	r3, [r7, #4]
 8002bb0:	4a20      	ldr	r2, [pc, #128]	@ (8002c34 <OC2Config+0xfc>)
 8002bb2:	4293      	cmp	r3, r2
 8002bb4:	d121      	bne.n	8002bfa <OC2Config+0xc2>
    assert_param(IS_LL_TIM_OCSTATE(TIM_OCInitStruct->OCNState));
    assert_param(IS_LL_TIM_OCPOLARITY(TIM_OCInitStruct->OCNPolarity));
    assert_param(IS_LL_TIM_OCIDLESTATE(TIM_OCInitStruct->OCNIdleState));

    /* Set the complementary output Polarity */
    MODIFY_REG(tmpccer, TIM_CCER_CC2NP, TIM_OCInitStruct->OCNPolarity << 6U);
 8002bb6:	697b      	ldr	r3, [r7, #20]
 8002bb8:	2280      	movs	r2, #128	@ 0x80
 8002bba:	4393      	bics	r3, r2
 8002bbc:	001a      	movs	r2, r3
 8002bbe:	683b      	ldr	r3, [r7, #0]
 8002bc0:	695b      	ldr	r3, [r3, #20]
 8002bc2:	019b      	lsls	r3, r3, #6
 8002bc4:	4313      	orrs	r3, r2
 8002bc6:	617b      	str	r3, [r7, #20]

    /* Set the complementary output State */
    MODIFY_REG(tmpccer, TIM_CCER_CC2NE, TIM_OCInitStruct->OCNState << 6U);
 8002bc8:	697b      	ldr	r3, [r7, #20]
 8002bca:	2240      	movs	r2, #64	@ 0x40
 8002bcc:	4393      	bics	r3, r2
 8002bce:	001a      	movs	r2, r3
 8002bd0:	683b      	ldr	r3, [r7, #0]
 8002bd2:	689b      	ldr	r3, [r3, #8]
 8002bd4:	019b      	lsls	r3, r3, #6
 8002bd6:	4313      	orrs	r3, r2
 8002bd8:	617b      	str	r3, [r7, #20]

    /* Set the Output Idle state */
    MODIFY_REG(tmpcr2, TIM_CR2_OIS2, TIM_OCInitStruct->OCIdleState << 2U);
 8002bda:	693b      	ldr	r3, [r7, #16]
 8002bdc:	4a16      	ldr	r2, [pc, #88]	@ (8002c38 <OC2Config+0x100>)
 8002bde:	401a      	ands	r2, r3
 8002be0:	683b      	ldr	r3, [r7, #0]
 8002be2:	699b      	ldr	r3, [r3, #24]
 8002be4:	009b      	lsls	r3, r3, #2
 8002be6:	4313      	orrs	r3, r2
 8002be8:	613b      	str	r3, [r7, #16]

    /* Set the complementary output Idle state */
    MODIFY_REG(tmpcr2, TIM_CR2_OIS2N, TIM_OCInitStruct->OCNIdleState << 3U);
 8002bea:	693b      	ldr	r3, [r7, #16]
 8002bec:	4a13      	ldr	r2, [pc, #76]	@ (8002c3c <OC2Config+0x104>)
 8002bee:	401a      	ands	r2, r3
 8002bf0:	683b      	ldr	r3, [r7, #0]
 8002bf2:	69db      	ldr	r3, [r3, #28]
 8002bf4:	00db      	lsls	r3, r3, #3
 8002bf6:	4313      	orrs	r3, r2
 8002bf8:	613b      	str	r3, [r7, #16]
  }

  /* Write to TIMx CR2 */
  LL_TIM_WriteReg(TIMx, CR2, tmpcr2);
 8002bfa:	687b      	ldr	r3, [r7, #4]
 8002bfc:	693a      	ldr	r2, [r7, #16]
 8002bfe:	605a      	str	r2, [r3, #4]

  /* Write to TIMx CCMR1 */
  LL_TIM_WriteReg(TIMx, CCMR1, tmpccmr1);
 8002c00:	687b      	ldr	r3, [r7, #4]
 8002c02:	68fa      	ldr	r2, [r7, #12]
 8002c04:	619a      	str	r2, [r3, #24]

  /* Set the Capture Compare Register value */
  LL_TIM_OC_SetCompareCH2(TIMx, TIM_OCInitStruct->CompareValue);
 8002c06:	683b      	ldr	r3, [r7, #0]
 8002c08:	68da      	ldr	r2, [r3, #12]
 8002c0a:	687b      	ldr	r3, [r7, #4]
 8002c0c:	0011      	movs	r1, r2
 8002c0e:	0018      	movs	r0, r3
 8002c10:	f7ff fd4a 	bl	80026a8 <LL_TIM_OC_SetCompareCH2>

  /* Write to TIMx CCER */
  LL_TIM_WriteReg(TIMx, CCER, tmpccer);
 8002c14:	687b      	ldr	r3, [r7, #4]
 8002c16:	697a      	ldr	r2, [r7, #20]
 8002c18:	621a      	str	r2, [r3, #32]

  return SUCCESS;
 8002c1a:	2300      	movs	r3, #0
}
 8002c1c:	0018      	movs	r0, r3
 8002c1e:	46bd      	mov	sp, r7
 8002c20:	b006      	add	sp, #24
 8002c22:	bd80      	pop	{r7, pc}
 8002c24:	fffffcff 	.word	0xfffffcff
 8002c28:	feff8fff 	.word	0xfeff8fff
 8002c2c:	40012c00 	.word	0x40012c00
 8002c30:	40014400 	.word	0x40014400
 8002c34:	40014800 	.word	0x40014800
 8002c38:	fffffbff 	.word	0xfffffbff
 8002c3c:	fffff7ff 	.word	0xfffff7ff

08002c40 <OC3Config>:
  * @retval An ErrorStatus enumeration value:
  *          - SUCCESS: TIMx registers are de-initialized
  *          - ERROR: not applicable
  */
static ErrorStatus OC3Config(TIM_TypeDef *TIMx, const LL_TIM_OC_InitTypeDef *TIM_OCInitStruct)
{
 8002c40:	b580      	push	{r7, lr}
 8002c42:	b086      	sub	sp, #24
 8002c44:	af00      	add	r7, sp, #0
 8002c46:	6078      	str	r0, [r7, #4]
 8002c48:	6039      	str	r1, [r7, #0]
  assert_param(IS_LL_TIM_OCMODE(TIM_OCInitStruct->OCMode));
  assert_param(IS_LL_TIM_OCSTATE(TIM_OCInitStruct->OCState));
  assert_param(IS_LL_TIM_OCPOLARITY(TIM_OCInitStruct->OCPolarity));

  /* Disable the Channel 3: Reset the CC3E Bit */
  CLEAR_BIT(TIMx->CCER, TIM_CCER_CC3E);
 8002c4a:	687b      	ldr	r3, [r7, #4]
 8002c4c:	6a1b      	ldr	r3, [r3, #32]
 8002c4e:	4a34      	ldr	r2, [pc, #208]	@ (8002d20 <OC3Config+0xe0>)
 8002c50:	401a      	ands	r2, r3
 8002c52:	687b      	ldr	r3, [r7, #4]
 8002c54:	621a      	str	r2, [r3, #32]

  /* Get the TIMx CCER register value */
  tmpccer =  LL_TIM_ReadReg(TIMx, CCER);
 8002c56:	687b      	ldr	r3, [r7, #4]
 8002c58:	6a1b      	ldr	r3, [r3, #32]
 8002c5a:	617b      	str	r3, [r7, #20]

  /* Get the TIMx CR2 register value */
  tmpcr2 = LL_TIM_ReadReg(TIMx, CR2);
 8002c5c:	687b      	ldr	r3, [r7, #4]
 8002c5e:	685b      	ldr	r3, [r3, #4]
 8002c60:	613b      	str	r3, [r7, #16]

  /* Get the TIMx CCMR2 register value */
  tmpccmr2 = LL_TIM_ReadReg(TIMx, CCMR2);
 8002c62:	687b      	ldr	r3, [r7, #4]
 8002c64:	69db      	ldr	r3, [r3, #28]
 8002c66:	60fb      	str	r3, [r7, #12]

  /* Reset Capture/Compare selection Bits */
  CLEAR_BIT(tmpccmr2, TIM_CCMR2_CC3S);
 8002c68:	68fb      	ldr	r3, [r7, #12]
 8002c6a:	2203      	movs	r2, #3
 8002c6c:	4393      	bics	r3, r2
 8002c6e:	60fb      	str	r3, [r7, #12]

  /* Select the Output Compare Mode */
  MODIFY_REG(tmpccmr2, TIM_CCMR2_OC3M, TIM_OCInitStruct->OCMode);
 8002c70:	68fb      	ldr	r3, [r7, #12]
 8002c72:	4a2c      	ldr	r2, [pc, #176]	@ (8002d24 <OC3Config+0xe4>)
 8002c74:	401a      	ands	r2, r3
 8002c76:	683b      	ldr	r3, [r7, #0]
 8002c78:	681b      	ldr	r3, [r3, #0]
 8002c7a:	4313      	orrs	r3, r2
 8002c7c:	60fb      	str	r3, [r7, #12]

  /* Set the Output Compare Polarity */
  MODIFY_REG(tmpccer, TIM_CCER_CC3P, TIM_OCInitStruct->OCPolarity << 8U);
 8002c7e:	697b      	ldr	r3, [r7, #20]
 8002c80:	4a29      	ldr	r2, [pc, #164]	@ (8002d28 <OC3Config+0xe8>)
 8002c82:	401a      	ands	r2, r3
 8002c84:	683b      	ldr	r3, [r7, #0]
 8002c86:	691b      	ldr	r3, [r3, #16]
 8002c88:	021b      	lsls	r3, r3, #8
 8002c8a:	4313      	orrs	r3, r2
 8002c8c:	617b      	str	r3, [r7, #20]

  /* Set the Output State */
  MODIFY_REG(tmpccer, TIM_CCER_CC3E, TIM_OCInitStruct->OCState << 8U);
 8002c8e:	697b      	ldr	r3, [r7, #20]
 8002c90:	4a23      	ldr	r2, [pc, #140]	@ (8002d20 <OC3Config+0xe0>)
 8002c92:	401a      	ands	r2, r3
 8002c94:	683b      	ldr	r3, [r7, #0]
 8002c96:	685b      	ldr	r3, [r3, #4]
 8002c98:	021b      	lsls	r3, r3, #8
 8002c9a:	4313      	orrs	r3, r2
 8002c9c:	617b      	str	r3, [r7, #20]

  if (IS_TIM_BREAK_INSTANCE(TIMx))
 8002c9e:	687b      	ldr	r3, [r7, #4]
 8002ca0:	4a22      	ldr	r2, [pc, #136]	@ (8002d2c <OC3Config+0xec>)
 8002ca2:	4293      	cmp	r3, r2
 8002ca4:	d007      	beq.n	8002cb6 <OC3Config+0x76>
 8002ca6:	687b      	ldr	r3, [r7, #4]
 8002ca8:	4a21      	ldr	r2, [pc, #132]	@ (8002d30 <OC3Config+0xf0>)
 8002caa:	4293      	cmp	r3, r2
 8002cac:	d003      	beq.n	8002cb6 <OC3Config+0x76>
 8002cae:	687b      	ldr	r3, [r7, #4]
 8002cb0:	4a20      	ldr	r2, [pc, #128]	@ (8002d34 <OC3Config+0xf4>)
 8002cb2:	4293      	cmp	r3, r2
 8002cb4:	d11f      	bne.n	8002cf6 <OC3Config+0xb6>
    assert_param(IS_LL_TIM_OCSTATE(TIM_OCInitStruct->OCNState));
    assert_param(IS_LL_TIM_OCPOLARITY(TIM_OCInitStruct->OCNPolarity));
    assert_param(IS_LL_TIM_OCIDLESTATE(TIM_OCInitStruct->OCNIdleState));

    /* Set the complementary output Polarity */
    MODIFY_REG(tmpccer, TIM_CCER_CC3NP, TIM_OCInitStruct->OCNPolarity << 10U);
 8002cb6:	697b      	ldr	r3, [r7, #20]
 8002cb8:	4a1f      	ldr	r2, [pc, #124]	@ (8002d38 <OC3Config+0xf8>)
 8002cba:	401a      	ands	r2, r3
 8002cbc:	683b      	ldr	r3, [r7, #0]
 8002cbe:	695b      	ldr	r3, [r3, #20]
 8002cc0:	029b      	lsls	r3, r3, #10
 8002cc2:	4313      	orrs	r3, r2
 8002cc4:	617b      	str	r3, [r7, #20]

    /* Set the complementary output State */
    MODIFY_REG(tmpccer, TIM_CCER_CC3NE, TIM_OCInitStruct->OCNState << 10U);
 8002cc6:	697b      	ldr	r3, [r7, #20]
 8002cc8:	4a1c      	ldr	r2, [pc, #112]	@ (8002d3c <OC3Config+0xfc>)
 8002cca:	401a      	ands	r2, r3
 8002ccc:	683b      	ldr	r3, [r7, #0]
 8002cce:	689b      	ldr	r3, [r3, #8]
 8002cd0:	029b      	lsls	r3, r3, #10
 8002cd2:	4313      	orrs	r3, r2
 8002cd4:	617b      	str	r3, [r7, #20]

    /* Set the Output Idle state */
    MODIFY_REG(tmpcr2, TIM_CR2_OIS3, TIM_OCInitStruct->OCIdleState << 4U);
 8002cd6:	693b      	ldr	r3, [r7, #16]
 8002cd8:	4a19      	ldr	r2, [pc, #100]	@ (8002d40 <OC3Config+0x100>)
 8002cda:	401a      	ands	r2, r3
 8002cdc:	683b      	ldr	r3, [r7, #0]
 8002cde:	699b      	ldr	r3, [r3, #24]
 8002ce0:	011b      	lsls	r3, r3, #4
 8002ce2:	4313      	orrs	r3, r2
 8002ce4:	613b      	str	r3, [r7, #16]

    /* Set the complementary output Idle state */
    MODIFY_REG(tmpcr2, TIM_CR2_OIS3N, TIM_OCInitStruct->OCNIdleState << 5U);
 8002ce6:	693b      	ldr	r3, [r7, #16]
 8002ce8:	4a16      	ldr	r2, [pc, #88]	@ (8002d44 <OC3Config+0x104>)
 8002cea:	401a      	ands	r2, r3
 8002cec:	683b      	ldr	r3, [r7, #0]
 8002cee:	69db      	ldr	r3, [r3, #28]
 8002cf0:	015b      	lsls	r3, r3, #5
 8002cf2:	4313      	orrs	r3, r2
 8002cf4:	613b      	str	r3, [r7, #16]
  }

  /* Write to TIMx CR2 */
  LL_TIM_WriteReg(TIMx, CR2, tmpcr2);
 8002cf6:	687b      	ldr	r3, [r7, #4]
 8002cf8:	693a      	ldr	r2, [r7, #16]
 8002cfa:	605a      	str	r2, [r3, #4]

  /* Write to TIMx CCMR2 */
  LL_TIM_WriteReg(TIMx, CCMR2, tmpccmr2);
 8002cfc:	687b      	ldr	r3, [r7, #4]
 8002cfe:	68fa      	ldr	r2, [r7, #12]
 8002d00:	61da      	str	r2, [r3, #28]

  /* Set the Capture Compare Register value */
  LL_TIM_OC_SetCompareCH3(TIMx, TIM_OCInitStruct->CompareValue);
 8002d02:	683b      	ldr	r3, [r7, #0]
 8002d04:	68da      	ldr	r2, [r3, #12]
 8002d06:	687b      	ldr	r3, [r7, #4]
 8002d08:	0011      	movs	r1, r2
 8002d0a:	0018      	movs	r0, r3
 8002d0c:	f7ff fcd8 	bl	80026c0 <LL_TIM_OC_SetCompareCH3>

  /* Write to TIMx CCER */
  LL_TIM_WriteReg(TIMx, CCER, tmpccer);
 8002d10:	687b      	ldr	r3, [r7, #4]
 8002d12:	697a      	ldr	r2, [r7, #20]
 8002d14:	621a      	str	r2, [r3, #32]

  return SUCCESS;
 8002d16:	2300      	movs	r3, #0
}
 8002d18:	0018      	movs	r0, r3
 8002d1a:	46bd      	mov	sp, r7
 8002d1c:	b006      	add	sp, #24
 8002d1e:	bd80      	pop	{r7, pc}
 8002d20:	fffffeff 	.word	0xfffffeff
 8002d24:	fffeff8f 	.word	0xfffeff8f
 8002d28:	fffffdff 	.word	0xfffffdff
 8002d2c:	40012c00 	.word	0x40012c00
 8002d30:	40014400 	.word	0x40014400
 8002d34:	40014800 	.word	0x40014800
 8002d38:	fffff7ff 	.word	0xfffff7ff
 8002d3c:	fffffbff 	.word	0xfffffbff
 8002d40:	ffffefff 	.word	0xffffefff
 8002d44:	ffffdfff 	.word	0xffffdfff

08002d48 <OC4Config>:
  * @retval An ErrorStatus enumeration value:
  *          - SUCCESS: TIMx registers are de-initialized
  *          - ERROR: not applicable
  */
static ErrorStatus OC4Config(TIM_TypeDef *TIMx, const LL_TIM_OC_InitTypeDef *TIM_OCInitStruct)
{
 8002d48:	b580      	push	{r7, lr}
 8002d4a:	b086      	sub	sp, #24
 8002d4c:	af00      	add	r7, sp, #0
 8002d4e:	6078      	str	r0, [r7, #4]
 8002d50:	6039      	str	r1, [r7, #0]
  assert_param(IS_LL_TIM_OCMODE(TIM_OCInitStruct->OCMode));
  assert_param(IS_LL_TIM_OCSTATE(TIM_OCInitStruct->OCState));
  assert_param(IS_LL_TIM_OCPOLARITY(TIM_OCInitStruct->OCPolarity));

  /* Disable the Channel 4: Reset the CC4E Bit */
  CLEAR_BIT(TIMx->CCER, TIM_CCER_CC4E);
 8002d52:	687b      	ldr	r3, [r7, #4]
 8002d54:	6a1b      	ldr	r3, [r3, #32]
 8002d56:	4a29      	ldr	r2, [pc, #164]	@ (8002dfc <OC4Config+0xb4>)
 8002d58:	401a      	ands	r2, r3
 8002d5a:	687b      	ldr	r3, [r7, #4]
 8002d5c:	621a      	str	r2, [r3, #32]

  /* Get the TIMx CCER register value */
  tmpccer = LL_TIM_ReadReg(TIMx, CCER);
 8002d5e:	687b      	ldr	r3, [r7, #4]
 8002d60:	6a1b      	ldr	r3, [r3, #32]
 8002d62:	613b      	str	r3, [r7, #16]

  /* Get the TIMx CR2 register value */
  tmpcr2 =  LL_TIM_ReadReg(TIMx, CR2);
 8002d64:	687b      	ldr	r3, [r7, #4]
 8002d66:	685b      	ldr	r3, [r3, #4]
 8002d68:	617b      	str	r3, [r7, #20]

  /* Get the TIMx CCMR2 register value */
  tmpccmr2 = LL_TIM_ReadReg(TIMx, CCMR2);
 8002d6a:	687b      	ldr	r3, [r7, #4]
 8002d6c:	69db      	ldr	r3, [r3, #28]
 8002d6e:	60fb      	str	r3, [r7, #12]

  /* Reset Capture/Compare selection Bits */
  CLEAR_BIT(tmpccmr2, TIM_CCMR2_CC4S);
 8002d70:	68fb      	ldr	r3, [r7, #12]
 8002d72:	4a23      	ldr	r2, [pc, #140]	@ (8002e00 <OC4Config+0xb8>)
 8002d74:	4013      	ands	r3, r2
 8002d76:	60fb      	str	r3, [r7, #12]

  /* Select the Output Compare Mode */
  MODIFY_REG(tmpccmr2, TIM_CCMR2_OC4M, TIM_OCInitStruct->OCMode << 8U);
 8002d78:	68fb      	ldr	r3, [r7, #12]
 8002d7a:	4a22      	ldr	r2, [pc, #136]	@ (8002e04 <OC4Config+0xbc>)
 8002d7c:	401a      	ands	r2, r3
 8002d7e:	683b      	ldr	r3, [r7, #0]
 8002d80:	681b      	ldr	r3, [r3, #0]
 8002d82:	021b      	lsls	r3, r3, #8
 8002d84:	4313      	orrs	r3, r2
 8002d86:	60fb      	str	r3, [r7, #12]

  /* Set the Output Compare Polarity */
  MODIFY_REG(tmpccer, TIM_CCER_CC4P, TIM_OCInitStruct->OCPolarity << 12U);
 8002d88:	693b      	ldr	r3, [r7, #16]
 8002d8a:	4a1f      	ldr	r2, [pc, #124]	@ (8002e08 <OC4Config+0xc0>)
 8002d8c:	401a      	ands	r2, r3
 8002d8e:	683b      	ldr	r3, [r7, #0]
 8002d90:	691b      	ldr	r3, [r3, #16]
 8002d92:	031b      	lsls	r3, r3, #12
 8002d94:	4313      	orrs	r3, r2
 8002d96:	613b      	str	r3, [r7, #16]

  /* Set the Output State */
  MODIFY_REG(tmpccer, TIM_CCER_CC4E, TIM_OCInitStruct->OCState << 12U);
 8002d98:	693b      	ldr	r3, [r7, #16]
 8002d9a:	4a18      	ldr	r2, [pc, #96]	@ (8002dfc <OC4Config+0xb4>)
 8002d9c:	401a      	ands	r2, r3
 8002d9e:	683b      	ldr	r3, [r7, #0]
 8002da0:	685b      	ldr	r3, [r3, #4]
 8002da2:	031b      	lsls	r3, r3, #12
 8002da4:	4313      	orrs	r3, r2
 8002da6:	613b      	str	r3, [r7, #16]

  if (IS_TIM_BREAK_INSTANCE(TIMx))
 8002da8:	687b      	ldr	r3, [r7, #4]
 8002daa:	4a18      	ldr	r2, [pc, #96]	@ (8002e0c <OC4Config+0xc4>)
 8002dac:	4293      	cmp	r3, r2
 8002dae:	d007      	beq.n	8002dc0 <OC4Config+0x78>
 8002db0:	687b      	ldr	r3, [r7, #4]
 8002db2:	4a17      	ldr	r2, [pc, #92]	@ (8002e10 <OC4Config+0xc8>)
 8002db4:	4293      	cmp	r3, r2
 8002db6:	d003      	beq.n	8002dc0 <OC4Config+0x78>
 8002db8:	687b      	ldr	r3, [r7, #4]
 8002dba:	4a16      	ldr	r2, [pc, #88]	@ (8002e14 <OC4Config+0xcc>)
 8002dbc:	4293      	cmp	r3, r2
 8002dbe:	d107      	bne.n	8002dd0 <OC4Config+0x88>
  {
    assert_param(IS_LL_TIM_OCIDLESTATE(TIM_OCInitStruct->OCIdleState));

    /* Set the Output Idle state */
    MODIFY_REG(tmpcr2, TIM_CR2_OIS4, TIM_OCInitStruct->OCIdleState << 6U);
 8002dc0:	697b      	ldr	r3, [r7, #20]
 8002dc2:	4a15      	ldr	r2, [pc, #84]	@ (8002e18 <OC4Config+0xd0>)
 8002dc4:	401a      	ands	r2, r3
 8002dc6:	683b      	ldr	r3, [r7, #0]
 8002dc8:	699b      	ldr	r3, [r3, #24]
 8002dca:	019b      	lsls	r3, r3, #6
 8002dcc:	4313      	orrs	r3, r2
 8002dce:	617b      	str	r3, [r7, #20]
  }

  /* Write to TIMx CR2 */
  LL_TIM_WriteReg(TIMx, CR2, tmpcr2);
 8002dd0:	687b      	ldr	r3, [r7, #4]
 8002dd2:	697a      	ldr	r2, [r7, #20]
 8002dd4:	605a      	str	r2, [r3, #4]

  /* Write to TIMx CCMR2 */
  LL_TIM_WriteReg(TIMx, CCMR2, tmpccmr2);
 8002dd6:	687b      	ldr	r3, [r7, #4]
 8002dd8:	68fa      	ldr	r2, [r7, #12]
 8002dda:	61da      	str	r2, [r3, #28]

  /* Set the Capture Compare Register value */
  LL_TIM_OC_SetCompareCH4(TIMx, TIM_OCInitStruct->CompareValue);
 8002ddc:	683b      	ldr	r3, [r7, #0]
 8002dde:	68da      	ldr	r2, [r3, #12]
 8002de0:	687b      	ldr	r3, [r7, #4]
 8002de2:	0011      	movs	r1, r2
 8002de4:	0018      	movs	r0, r3
 8002de6:	f7ff fc77 	bl	80026d8 <LL_TIM_OC_SetCompareCH4>

  /* Write to TIMx CCER */
  LL_TIM_WriteReg(TIMx, CCER, tmpccer);
 8002dea:	687b      	ldr	r3, [r7, #4]
 8002dec:	693a      	ldr	r2, [r7, #16]
 8002dee:	621a      	str	r2, [r3, #32]

  return SUCCESS;
 8002df0:	2300      	movs	r3, #0
}
 8002df2:	0018      	movs	r0, r3
 8002df4:	46bd      	mov	sp, r7
 8002df6:	b006      	add	sp, #24
 8002df8:	bd80      	pop	{r7, pc}
 8002dfa:	46c0      	nop			@ (mov r8, r8)
 8002dfc:	ffffefff 	.word	0xffffefff
 8002e00:	fffffcff 	.word	0xfffffcff
 8002e04:	feff8fff 	.word	0xfeff8fff
 8002e08:	ffffdfff 	.word	0xffffdfff
 8002e0c:	40012c00 	.word	0x40012c00
 8002e10:	40014400 	.word	0x40014400
 8002e14:	40014800 	.word	0x40014800
 8002e18:	ffffbfff 	.word	0xffffbfff

08002e1c <OC5Config>:
  * @retval An ErrorStatus enumeration value:
  *          - SUCCESS: TIMx registers are de-initialized
  *          - ERROR: not applicable
  */
static ErrorStatus OC5Config(TIM_TypeDef *TIMx, const LL_TIM_OC_InitTypeDef *TIM_OCInitStruct)
{
 8002e1c:	b580      	push	{r7, lr}
 8002e1e:	b084      	sub	sp, #16
 8002e20:	af00      	add	r7, sp, #0
 8002e22:	6078      	str	r0, [r7, #4]
 8002e24:	6039      	str	r1, [r7, #0]
  assert_param(IS_LL_TIM_OCPOLARITY(TIM_OCInitStruct->OCPolarity));
  assert_param(IS_LL_TIM_OCPOLARITY(TIM_OCInitStruct->OCNPolarity));
  assert_param(IS_LL_TIM_OCSTATE(TIM_OCInitStruct->OCNState));

  /* Disable the Channel 5: Reset the CC5E Bit */
  CLEAR_BIT(TIMx->CCER, TIM_CCER_CC5E);
 8002e26:	687b      	ldr	r3, [r7, #4]
 8002e28:	6a1b      	ldr	r3, [r3, #32]
 8002e2a:	4a24      	ldr	r2, [pc, #144]	@ (8002ebc <OC5Config+0xa0>)
 8002e2c:	401a      	ands	r2, r3
 8002e2e:	687b      	ldr	r3, [r7, #4]
 8002e30:	621a      	str	r2, [r3, #32]

  /* Get the TIMx CCER register value */
  tmpccer = LL_TIM_ReadReg(TIMx, CCER);
 8002e32:	687b      	ldr	r3, [r7, #4]
 8002e34:	6a1b      	ldr	r3, [r3, #32]
 8002e36:	60fb      	str	r3, [r7, #12]

  /* Get the TIMx CCMR3 register value */
  tmpccmr3 = LL_TIM_ReadReg(TIMx, CCMR3);
 8002e38:	687b      	ldr	r3, [r7, #4]
 8002e3a:	6d5b      	ldr	r3, [r3, #84]	@ 0x54
 8002e3c:	60bb      	str	r3, [r7, #8]

  /* Select the Output Compare Mode */
  MODIFY_REG(tmpccmr3, TIM_CCMR3_OC5M, TIM_OCInitStruct->OCMode);
 8002e3e:	68bb      	ldr	r3, [r7, #8]
 8002e40:	4a1f      	ldr	r2, [pc, #124]	@ (8002ec0 <OC5Config+0xa4>)
 8002e42:	401a      	ands	r2, r3
 8002e44:	683b      	ldr	r3, [r7, #0]
 8002e46:	681b      	ldr	r3, [r3, #0]
 8002e48:	4313      	orrs	r3, r2
 8002e4a:	60bb      	str	r3, [r7, #8]

  /* Set the Output Compare Polarity */
  MODIFY_REG(tmpccer, TIM_CCER_CC5P, TIM_OCInitStruct->OCPolarity << 16U);
 8002e4c:	68fb      	ldr	r3, [r7, #12]
 8002e4e:	4a1d      	ldr	r2, [pc, #116]	@ (8002ec4 <OC5Config+0xa8>)
 8002e50:	401a      	ands	r2, r3
 8002e52:	683b      	ldr	r3, [r7, #0]
 8002e54:	691b      	ldr	r3, [r3, #16]
 8002e56:	041b      	lsls	r3, r3, #16
 8002e58:	4313      	orrs	r3, r2
 8002e5a:	60fb      	str	r3, [r7, #12]

  /* Set the Output State */
  MODIFY_REG(tmpccer, TIM_CCER_CC5E, TIM_OCInitStruct->OCState << 16U);
 8002e5c:	68fb      	ldr	r3, [r7, #12]
 8002e5e:	4a17      	ldr	r2, [pc, #92]	@ (8002ebc <OC5Config+0xa0>)
 8002e60:	401a      	ands	r2, r3
 8002e62:	683b      	ldr	r3, [r7, #0]
 8002e64:	685b      	ldr	r3, [r3, #4]
 8002e66:	041b      	lsls	r3, r3, #16
 8002e68:	4313      	orrs	r3, r2
 8002e6a:	60fb      	str	r3, [r7, #12]

  if (IS_TIM_BREAK_INSTANCE(TIMx))
 8002e6c:	687b      	ldr	r3, [r7, #4]
 8002e6e:	4a16      	ldr	r2, [pc, #88]	@ (8002ec8 <OC5Config+0xac>)
 8002e70:	4293      	cmp	r3, r2
 8002e72:	d007      	beq.n	8002e84 <OC5Config+0x68>
 8002e74:	687b      	ldr	r3, [r7, #4]
 8002e76:	4a15      	ldr	r2, [pc, #84]	@ (8002ecc <OC5Config+0xb0>)
 8002e78:	4293      	cmp	r3, r2
 8002e7a:	d003      	beq.n	8002e84 <OC5Config+0x68>
 8002e7c:	687b      	ldr	r3, [r7, #4]
 8002e7e:	4a14      	ldr	r2, [pc, #80]	@ (8002ed0 <OC5Config+0xb4>)
 8002e80:	4293      	cmp	r3, r2
 8002e82:	d109      	bne.n	8002e98 <OC5Config+0x7c>
  {
    assert_param(IS_LL_TIM_OCIDLESTATE(TIM_OCInitStruct->OCNIdleState));
    assert_param(IS_LL_TIM_OCIDLESTATE(TIM_OCInitStruct->OCIdleState));

    /* Set the Output Idle state */
    MODIFY_REG(TIMx->CR2, TIM_CR2_OIS5, TIM_OCInitStruct->OCIdleState << 8U);
 8002e84:	687b      	ldr	r3, [r7, #4]
 8002e86:	685b      	ldr	r3, [r3, #4]
 8002e88:	4a0c      	ldr	r2, [pc, #48]	@ (8002ebc <OC5Config+0xa0>)
 8002e8a:	401a      	ands	r2, r3
 8002e8c:	683b      	ldr	r3, [r7, #0]
 8002e8e:	699b      	ldr	r3, [r3, #24]
 8002e90:	021b      	lsls	r3, r3, #8
 8002e92:	431a      	orrs	r2, r3
 8002e94:	687b      	ldr	r3, [r7, #4]
 8002e96:	605a      	str	r2, [r3, #4]

  }

  /* Write to TIMx CCMR3 */
  LL_TIM_WriteReg(TIMx, CCMR3, tmpccmr3);
 8002e98:	687b      	ldr	r3, [r7, #4]
 8002e9a:	68ba      	ldr	r2, [r7, #8]
 8002e9c:	655a      	str	r2, [r3, #84]	@ 0x54

  /* Set the Capture Compare Register value */
  LL_TIM_OC_SetCompareCH5(TIMx, TIM_OCInitStruct->CompareValue);
 8002e9e:	683b      	ldr	r3, [r7, #0]
 8002ea0:	68da      	ldr	r2, [r3, #12]
 8002ea2:	687b      	ldr	r3, [r7, #4]
 8002ea4:	0011      	movs	r1, r2
 8002ea6:	0018      	movs	r0, r3
 8002ea8:	f7ff fc22 	bl	80026f0 <LL_TIM_OC_SetCompareCH5>

  /* Write to TIMx CCER */
  LL_TIM_WriteReg(TIMx, CCER, tmpccer);
 8002eac:	687b      	ldr	r3, [r7, #4]
 8002eae:	68fa      	ldr	r2, [r7, #12]
 8002eb0:	621a      	str	r2, [r3, #32]

  return SUCCESS;
 8002eb2:	2300      	movs	r3, #0
}
 8002eb4:	0018      	movs	r0, r3
 8002eb6:	46bd      	mov	sp, r7
 8002eb8:	b004      	add	sp, #16
 8002eba:	bd80      	pop	{r7, pc}
 8002ebc:	fffeffff 	.word	0xfffeffff
 8002ec0:	fffeff8f 	.word	0xfffeff8f
 8002ec4:	fffdffff 	.word	0xfffdffff
 8002ec8:	40012c00 	.word	0x40012c00
 8002ecc:	40014400 	.word	0x40014400
 8002ed0:	40014800 	.word	0x40014800

08002ed4 <OC6Config>:
  * @retval An ErrorStatus enumeration value:
  *          - SUCCESS: TIMx registers are de-initialized
  *          - ERROR: not applicable
  */
static ErrorStatus OC6Config(TIM_TypeDef *TIMx, const LL_TIM_OC_InitTypeDef *TIM_OCInitStruct)
{
 8002ed4:	b580      	push	{r7, lr}
 8002ed6:	b084      	sub	sp, #16
 8002ed8:	af00      	add	r7, sp, #0
 8002eda:	6078      	str	r0, [r7, #4]
 8002edc:	6039      	str	r1, [r7, #0]
  assert_param(IS_LL_TIM_OCPOLARITY(TIM_OCInitStruct->OCPolarity));
  assert_param(IS_LL_TIM_OCPOLARITY(TIM_OCInitStruct->OCNPolarity));
  assert_param(IS_LL_TIM_OCSTATE(TIM_OCInitStruct->OCNState));

  /* Disable the Channel 5: Reset the CC6E Bit */
  CLEAR_BIT(TIMx->CCER, TIM_CCER_CC6E);
 8002ede:	687b      	ldr	r3, [r7, #4]
 8002ee0:	6a1b      	ldr	r3, [r3, #32]
 8002ee2:	4a25      	ldr	r2, [pc, #148]	@ (8002f78 <OC6Config+0xa4>)
 8002ee4:	401a      	ands	r2, r3
 8002ee6:	687b      	ldr	r3, [r7, #4]
 8002ee8:	621a      	str	r2, [r3, #32]

  /* Get the TIMx CCER register value */
  tmpccer = LL_TIM_ReadReg(TIMx, CCER);
 8002eea:	687b      	ldr	r3, [r7, #4]
 8002eec:	6a1b      	ldr	r3, [r3, #32]
 8002eee:	60fb      	str	r3, [r7, #12]

  /* Get the TIMx CCMR3 register value */
  tmpccmr3 = LL_TIM_ReadReg(TIMx, CCMR3);
 8002ef0:	687b      	ldr	r3, [r7, #4]
 8002ef2:	6d5b      	ldr	r3, [r3, #84]	@ 0x54
 8002ef4:	60bb      	str	r3, [r7, #8]

  /* Select the Output Compare Mode */
  MODIFY_REG(tmpccmr3, TIM_CCMR3_OC6M, TIM_OCInitStruct->OCMode << 8U);
 8002ef6:	68bb      	ldr	r3, [r7, #8]
 8002ef8:	4a20      	ldr	r2, [pc, #128]	@ (8002f7c <OC6Config+0xa8>)
 8002efa:	401a      	ands	r2, r3
 8002efc:	683b      	ldr	r3, [r7, #0]
 8002efe:	681b      	ldr	r3, [r3, #0]
 8002f00:	021b      	lsls	r3, r3, #8
 8002f02:	4313      	orrs	r3, r2
 8002f04:	60bb      	str	r3, [r7, #8]

  /* Set the Output Compare Polarity */
  MODIFY_REG(tmpccer, TIM_CCER_CC6P, TIM_OCInitStruct->OCPolarity << 20U);
 8002f06:	68fb      	ldr	r3, [r7, #12]
 8002f08:	4a1d      	ldr	r2, [pc, #116]	@ (8002f80 <OC6Config+0xac>)
 8002f0a:	401a      	ands	r2, r3
 8002f0c:	683b      	ldr	r3, [r7, #0]
 8002f0e:	691b      	ldr	r3, [r3, #16]
 8002f10:	051b      	lsls	r3, r3, #20
 8002f12:	4313      	orrs	r3, r2
 8002f14:	60fb      	str	r3, [r7, #12]

  /* Set the Output State */
  MODIFY_REG(tmpccer, TIM_CCER_CC6E, TIM_OCInitStruct->OCState << 20U);
 8002f16:	68fb      	ldr	r3, [r7, #12]
 8002f18:	4a17      	ldr	r2, [pc, #92]	@ (8002f78 <OC6Config+0xa4>)
 8002f1a:	401a      	ands	r2, r3
 8002f1c:	683b      	ldr	r3, [r7, #0]
 8002f1e:	685b      	ldr	r3, [r3, #4]
 8002f20:	051b      	lsls	r3, r3, #20
 8002f22:	4313      	orrs	r3, r2
 8002f24:	60fb      	str	r3, [r7, #12]

  if (IS_TIM_BREAK_INSTANCE(TIMx))
 8002f26:	687b      	ldr	r3, [r7, #4]
 8002f28:	4a16      	ldr	r2, [pc, #88]	@ (8002f84 <OC6Config+0xb0>)
 8002f2a:	4293      	cmp	r3, r2
 8002f2c:	d007      	beq.n	8002f3e <OC6Config+0x6a>
 8002f2e:	687b      	ldr	r3, [r7, #4]
 8002f30:	4a15      	ldr	r2, [pc, #84]	@ (8002f88 <OC6Config+0xb4>)
 8002f32:	4293      	cmp	r3, r2
 8002f34:	d003      	beq.n	8002f3e <OC6Config+0x6a>
 8002f36:	687b      	ldr	r3, [r7, #4]
 8002f38:	4a14      	ldr	r2, [pc, #80]	@ (8002f8c <OC6Config+0xb8>)
 8002f3a:	4293      	cmp	r3, r2
 8002f3c:	d109      	bne.n	8002f52 <OC6Config+0x7e>
  {
    assert_param(IS_LL_TIM_OCIDLESTATE(TIM_OCInitStruct->OCNIdleState));
    assert_param(IS_LL_TIM_OCIDLESTATE(TIM_OCInitStruct->OCIdleState));

    /* Set the Output Idle state */
    MODIFY_REG(TIMx->CR2, TIM_CR2_OIS6, TIM_OCInitStruct->OCIdleState << 10U);
 8002f3e:	687b      	ldr	r3, [r7, #4]
 8002f40:	685b      	ldr	r3, [r3, #4]
 8002f42:	4a13      	ldr	r2, [pc, #76]	@ (8002f90 <OC6Config+0xbc>)
 8002f44:	401a      	ands	r2, r3
 8002f46:	683b      	ldr	r3, [r7, #0]
 8002f48:	699b      	ldr	r3, [r3, #24]
 8002f4a:	029b      	lsls	r3, r3, #10
 8002f4c:	431a      	orrs	r2, r3
 8002f4e:	687b      	ldr	r3, [r7, #4]
 8002f50:	605a      	str	r2, [r3, #4]
  }

  /* Write to TIMx CCMR3 */
  LL_TIM_WriteReg(TIMx, CCMR3, tmpccmr3);
 8002f52:	687b      	ldr	r3, [r7, #4]
 8002f54:	68ba      	ldr	r2, [r7, #8]
 8002f56:	655a      	str	r2, [r3, #84]	@ 0x54

  /* Set the Capture Compare Register value */
  LL_TIM_OC_SetCompareCH6(TIMx, TIM_OCInitStruct->CompareValue);
 8002f58:	683b      	ldr	r3, [r7, #0]
 8002f5a:	68da      	ldr	r2, [r3, #12]
 8002f5c:	687b      	ldr	r3, [r7, #4]
 8002f5e:	0011      	movs	r1, r2
 8002f60:	0018      	movs	r0, r3
 8002f62:	f7ff fbd6 	bl	8002712 <LL_TIM_OC_SetCompareCH6>

  /* Write to TIMx CCER */
  LL_TIM_WriteReg(TIMx, CCER, tmpccer);
 8002f66:	687b      	ldr	r3, [r7, #4]
 8002f68:	68fa      	ldr	r2, [r7, #12]
 8002f6a:	621a      	str	r2, [r3, #32]

  return SUCCESS;
 8002f6c:	2300      	movs	r3, #0
}
 8002f6e:	0018      	movs	r0, r3
 8002f70:	46bd      	mov	sp, r7
 8002f72:	b004      	add	sp, #16
 8002f74:	bd80      	pop	{r7, pc}
 8002f76:	46c0      	nop			@ (mov r8, r8)
 8002f78:	ffefffff 	.word	0xffefffff
 8002f7c:	feff8fff 	.word	0xfeff8fff
 8002f80:	ffdfffff 	.word	0xffdfffff
 8002f84:	40012c00 	.word	0x40012c00
 8002f88:	40014400 	.word	0x40014400
 8002f8c:	40014800 	.word	0x40014800
 8002f90:	fffbffff 	.word	0xfffbffff

08002f94 <LL_InitTick>:
  *         configuration by calling this function, for a delay use rather osDelay RTOS service.
  * @param  Ticks Number of ticks
  * @retval None
  */
__STATIC_INLINE void LL_InitTick(uint32_t HCLKFrequency, uint32_t Ticks)
{
 8002f94:	b580      	push	{r7, lr}
 8002f96:	b082      	sub	sp, #8
 8002f98:	af00      	add	r7, sp, #0
 8002f9a:	6078      	str	r0, [r7, #4]
 8002f9c:	6039      	str	r1, [r7, #0]
  /* Configure the SysTick to have interrupt in 1ms time base */
  SysTick->LOAD  = (uint32_t)((HCLKFrequency / Ticks) - 1UL);  /* set reload register */
 8002f9e:	6839      	ldr	r1, [r7, #0]
 8002fa0:	6878      	ldr	r0, [r7, #4]
 8002fa2:	f7fd f8b1 	bl	8000108 <__udivsi3>
 8002fa6:	0003      	movs	r3, r0
 8002fa8:	001a      	movs	r2, r3
 8002faa:	4b06      	ldr	r3, [pc, #24]	@ (8002fc4 <LL_InitTick+0x30>)
 8002fac:	3a01      	subs	r2, #1
 8002fae:	605a      	str	r2, [r3, #4]
  SysTick->VAL   = 0UL;                                       /* Load the SysTick Counter Value */
 8002fb0:	4b04      	ldr	r3, [pc, #16]	@ (8002fc4 <LL_InitTick+0x30>)
 8002fb2:	2200      	movs	r2, #0
 8002fb4:	609a      	str	r2, [r3, #8]
  SysTick->CTRL  = SysTick_CTRL_CLKSOURCE_Msk |
 8002fb6:	4b03      	ldr	r3, [pc, #12]	@ (8002fc4 <LL_InitTick+0x30>)
 8002fb8:	2205      	movs	r2, #5
 8002fba:	601a      	str	r2, [r3, #0]
                   SysTick_CTRL_ENABLE_Msk;                   /* Enable the Systick Timer */
}
 8002fbc:	46c0      	nop			@ (mov r8, r8)
 8002fbe:	46bd      	mov	sp, r7
 8002fc0:	b002      	add	sp, #8
 8002fc2:	bd80      	pop	{r7, pc}
 8002fc4:	e000e010 	.word	0xe000e010

08002fc8 <LL_Init1msTick>:
  * @param  HCLKFrequency HCLK frequency in Hz
  * @note   HCLK frequency can be calculated thanks to RCC helper macro or function @ref LL_RCC_GetSystemClocksFreq
  * @retval None
  */
void LL_Init1msTick(uint32_t HCLKFrequency)
{
 8002fc8:	b580      	push	{r7, lr}
 8002fca:	b082      	sub	sp, #8
 8002fcc:	af00      	add	r7, sp, #0
 8002fce:	6078      	str	r0, [r7, #4]
  /* Use frequency provided in argument */
  LL_InitTick(HCLKFrequency, 1000U);
 8002fd0:	23fa      	movs	r3, #250	@ 0xfa
 8002fd2:	009a      	lsls	r2, r3, #2
 8002fd4:	687b      	ldr	r3, [r7, #4]
 8002fd6:	0011      	movs	r1, r2
 8002fd8:	0018      	movs	r0, r3
 8002fda:	f7ff ffdb 	bl	8002f94 <LL_InitTick>
}
 8002fde:	46c0      	nop			@ (mov r8, r8)
 8002fe0:	46bd      	mov	sp, r7
 8002fe2:	b002      	add	sp, #8
 8002fe4:	bd80      	pop	{r7, pc}
	...

08002fe8 <LL_SetSystemCoreClock>:
  * @note   Variable can be calculated also through SystemCoreClockUpdate function.
  * @param  HCLKFrequency HCLK frequency in Hz (can be calculated thanks to RCC helper macro)
  * @retval None
  */
void LL_SetSystemCoreClock(uint32_t HCLKFrequency)
{
 8002fe8:	b580      	push	{r7, lr}
 8002fea:	b082      	sub	sp, #8
 8002fec:	af00      	add	r7, sp, #0
 8002fee:	6078      	str	r0, [r7, #4]
  /* HCLK clock frequency */
  SystemCoreClock = HCLKFrequency;
 8002ff0:	4b03      	ldr	r3, [pc, #12]	@ (8003000 <LL_SetSystemCoreClock+0x18>)
 8002ff2:	687a      	ldr	r2, [r7, #4]
 8002ff4:	601a      	str	r2, [r3, #0]
}
 8002ff6:	46c0      	nop			@ (mov r8, r8)
 8002ff8:	46bd      	mov	sp, r7
 8002ffa:	b002      	add	sp, #8
 8002ffc:	bd80      	pop	{r7, pc}
 8002ffe:	46c0      	nop			@ (mov r8, r8)
 8003000:	20000018 	.word	0x20000018

08003004 <memset>:
 8003004:	0003      	movs	r3, r0
 8003006:	1882      	adds	r2, r0, r2
 8003008:	4293      	cmp	r3, r2
 800300a:	d100      	bne.n	800300e <memset+0xa>
 800300c:	4770      	bx	lr
 800300e:	7019      	strb	r1, [r3, #0]
 8003010:	3301      	adds	r3, #1
 8003012:	e7f9      	b.n	8003008 <memset+0x4>

08003014 <__libc_init_array>:
 8003014:	b570      	push	{r4, r5, r6, lr}
 8003016:	2600      	movs	r6, #0
 8003018:	4c0c      	ldr	r4, [pc, #48]	@ (800304c <__libc_init_array+0x38>)
 800301a:	4d0d      	ldr	r5, [pc, #52]	@ (8003050 <__libc_init_array+0x3c>)
 800301c:	1b64      	subs	r4, r4, r5
 800301e:	10a4      	asrs	r4, r4, #2
 8003020:	42a6      	cmp	r6, r4
 8003022:	d109      	bne.n	8003038 <__libc_init_array+0x24>
 8003024:	2600      	movs	r6, #0
 8003026:	f000 f819 	bl	800305c <_init>
 800302a:	4c0a      	ldr	r4, [pc, #40]	@ (8003054 <__libc_init_array+0x40>)
 800302c:	4d0a      	ldr	r5, [pc, #40]	@ (8003058 <__libc_init_array+0x44>)
 800302e:	1b64      	subs	r4, r4, r5
 8003030:	10a4      	asrs	r4, r4, #2
 8003032:	42a6      	cmp	r6, r4
 8003034:	d105      	bne.n	8003042 <__libc_init_array+0x2e>
 8003036:	bd70      	pop	{r4, r5, r6, pc}
 8003038:	00b3      	lsls	r3, r6, #2
 800303a:	58eb      	ldr	r3, [r5, r3]
 800303c:	4798      	blx	r3
 800303e:	3601      	adds	r6, #1
 8003040:	e7ee      	b.n	8003020 <__libc_init_array+0xc>
 8003042:	00b3      	lsls	r3, r6, #2
 8003044:	58eb      	ldr	r3, [r5, r3]
 8003046:	4798      	blx	r3
 8003048:	3601      	adds	r6, #1
 800304a:	e7f2      	b.n	8003032 <__libc_init_array+0x1e>
 800304c:	0800308c 	.word	0x0800308c
 8003050:	0800308c 	.word	0x0800308c
 8003054:	08003090 	.word	0x08003090
 8003058:	0800308c 	.word	0x0800308c

0800305c <_init>:
 800305c:	b5f8      	push	{r3, r4, r5, r6, r7, lr}
 800305e:	46c0      	nop			@ (mov r8, r8)
 8003060:	bcf8      	pop	{r3, r4, r5, r6, r7}
 8003062:	bc08      	pop	{r3}
 8003064:	469e      	mov	lr, r3
 8003066:	4770      	bx	lr

08003068 <_fini>:
 8003068:	b5f8      	push	{r3, r4, r5, r6, r7, lr}
 800306a:	46c0      	nop			@ (mov r8, r8)
 800306c:	bcf8      	pop	{r3, r4, r5, r6, r7}
 800306e:	bc08      	pop	{r3}
 8003070:	469e      	mov	lr, r3
 8003072:	4770      	bx	lr
